Archive member included to satisfy reference by file (symbol)

i:/mcu/gnu_tools_for_arm/11.3_rel1/bin/../lib/gcc/arm-none-eabi/11.3.1/thumb/v7e-m+fp/hard\libc.a(libc_a-exit.o)
                              i:/mcu/gnu_tools_for_arm/11.3_rel1/bin/../lib/gcc/arm-none-eabi/11.3.1/thumb/v7e-m+fp/hard/crt0.o (exit)
i:/mcu/gnu_tools_for_arm/11.3_rel1/bin/../lib/gcc/arm-none-eabi/11.3.1/thumb/v7e-m+fp/hard\libc.a(libc_a-findfp.o)
                              i:/mcu/gnu_tools_for_arm/11.3_rel1/bin/../lib/gcc/arm-none-eabi/11.3.1/thumb/v7e-m+fp/hard\libc.a(libc_a-exit.o) (__stdio_exit_handler)
i:/mcu/gnu_tools_for_arm/11.3_rel1/bin/../lib/gcc/arm-none-eabi/11.3.1/thumb/v7e-m+fp/hard\libc.a(libc_a-fwalk.o)
                              i:/mcu/gnu_tools_for_arm/11.3_rel1/bin/../lib/gcc/arm-none-eabi/11.3.1/thumb/v7e-m+fp/hard\libc.a(libc_a-findfp.o) (_fwalk_sglue)
i:/mcu/gnu_tools_for_arm/11.3_rel1/bin/../lib/gcc/arm-none-eabi/11.3.1/thumb/v7e-m+fp/hard\libc.a(libc_a-sprintf.o)
                              build/user_uart.o (sprintf)
i:/mcu/gnu_tools_for_arm/11.3_rel1/bin/../lib/gcc/arm-none-eabi/11.3.1/thumb/v7e-m+fp/hard\libc.a(libc_a-stdio.o)
                              i:/mcu/gnu_tools_for_arm/11.3_rel1/bin/../lib/gcc/arm-none-eabi/11.3.1/thumb/v7e-m+fp/hard\libc.a(libc_a-findfp.o) (__sread)
i:/mcu/gnu_tools_for_arm/11.3_rel1/bin/../lib/gcc/arm-none-eabi/11.3.1/thumb/v7e-m+fp/hard\libc.a(libc_a-memset.o)
                              i:/mcu/gnu_tools_for_arm/11.3_rel1/bin/../lib/gcc/arm-none-eabi/11.3.1/thumb/v7e-m+fp/hard/crt0.o (memset)
i:/mcu/gnu_tools_for_arm/11.3_rel1/bin/../lib/gcc/arm-none-eabi/11.3.1/thumb/v7e-m+fp/hard\libc.a(libc_a-closer.o)
                              i:/mcu/gnu_tools_for_arm/11.3_rel1/bin/../lib/gcc/arm-none-eabi/11.3.1/thumb/v7e-m+fp/hard\libc.a(libc_a-stdio.o) (_close_r)
i:/mcu/gnu_tools_for_arm/11.3_rel1/bin/../lib/gcc/arm-none-eabi/11.3.1/thumb/v7e-m+fp/hard\libc.a(libc_a-reent.o)
                              i:/mcu/gnu_tools_for_arm/11.3_rel1/bin/../lib/gcc/arm-none-eabi/11.3.1/thumb/v7e-m+fp/hard\libc.a(libc_a-closer.o) (errno)
i:/mcu/gnu_tools_for_arm/11.3_rel1/bin/../lib/gcc/arm-none-eabi/11.3.1/thumb/v7e-m+fp/hard\libc.a(libc_a-impure.o)
                              i:/mcu/gnu_tools_for_arm/11.3_rel1/bin/../lib/gcc/arm-none-eabi/11.3.1/thumb/v7e-m+fp/hard\libc.a(libc_a-sprintf.o) (_impure_ptr)
i:/mcu/gnu_tools_for_arm/11.3_rel1/bin/../lib/gcc/arm-none-eabi/11.3.1/thumb/v7e-m+fp/hard\libc.a(libc_a-lseekr.o)
                              i:/mcu/gnu_tools_for_arm/11.3_rel1/bin/../lib/gcc/arm-none-eabi/11.3.1/thumb/v7e-m+fp/hard\libc.a(libc_a-stdio.o) (_lseek_r)
i:/mcu/gnu_tools_for_arm/11.3_rel1/bin/../lib/gcc/arm-none-eabi/11.3.1/thumb/v7e-m+fp/hard\libc.a(libc_a-readr.o)
                              i:/mcu/gnu_tools_for_arm/11.3_rel1/bin/../lib/gcc/arm-none-eabi/11.3.1/thumb/v7e-m+fp/hard\libc.a(libc_a-stdio.o) (_read_r)
i:/mcu/gnu_tools_for_arm/11.3_rel1/bin/../lib/gcc/arm-none-eabi/11.3.1/thumb/v7e-m+fp/hard\libc.a(libc_a-writer.o)
                              i:/mcu/gnu_tools_for_arm/11.3_rel1/bin/../lib/gcc/arm-none-eabi/11.3.1/thumb/v7e-m+fp/hard\libc.a(libc_a-stdio.o) (_write_r)
i:/mcu/gnu_tools_for_arm/11.3_rel1/bin/../lib/gcc/arm-none-eabi/11.3.1/thumb/v7e-m+fp/hard\libc.a(libc_a-errno.o)
                              build/syscalls.o (__errno)
i:/mcu/gnu_tools_for_arm/11.3_rel1/bin/../lib/gcc/arm-none-eabi/11.3.1/thumb/v7e-m+fp/hard\libc.a(libc_a-init.o)
                              i:/mcu/gnu_tools_for_arm/11.3_rel1/bin/../lib/gcc/arm-none-eabi/11.3.1/thumb/v7e-m+fp/hard/crt0.o (__libc_init_array)
i:/mcu/gnu_tools_for_arm/11.3_rel1/bin/../lib/gcc/arm-none-eabi/11.3.1/thumb/v7e-m+fp/hard\libc.a(libc_a-lock.o)
                              i:/mcu/gnu_tools_for_arm/11.3_rel1/bin/../lib/gcc/arm-none-eabi/11.3.1/thumb/v7e-m+fp/hard\libc.a(libc_a-findfp.o) (__retarget_lock_init_recursive)
i:/mcu/gnu_tools_for_arm/11.3_rel1/bin/../lib/gcc/arm-none-eabi/11.3.1/thumb/v7e-m+fp/hard\libc.a(libc_a-__call_atexit.o)
                              i:/mcu/gnu_tools_for_arm/11.3_rel1/bin/../lib/gcc/arm-none-eabi/11.3.1/thumb/v7e-m+fp/hard\libc.a(libc_a-exit.o) (__call_exitprocs)
i:/mcu/gnu_tools_for_arm/11.3_rel1/bin/../lib/gcc/arm-none-eabi/11.3.1/thumb/v7e-m+fp/hard\libc.a(libc_a-atexit.o)
                              i:/mcu/gnu_tools_for_arm/11.3_rel1/bin/../lib/gcc/arm-none-eabi/11.3.1/thumb/v7e-m+fp/hard\libc.a(libc_a-__call_atexit.o) (atexit)
i:/mcu/gnu_tools_for_arm/11.3_rel1/bin/../lib/gcc/arm-none-eabi/11.3.1/thumb/v7e-m+fp/hard\libc.a(libc_a-freer.o)
                              i:/mcu/gnu_tools_for_arm/11.3_rel1/bin/../lib/gcc/arm-none-eabi/11.3.1/thumb/v7e-m+fp/hard\libc.a(libc_a-reent.o) (_free_r)
i:/mcu/gnu_tools_for_arm/11.3_rel1/bin/../lib/gcc/arm-none-eabi/11.3.1/thumb/v7e-m+fp/hard\libc.a(libc_a-mallocr.o)
                              i:/mcu/gnu_tools_for_arm/11.3_rel1/bin/../lib/gcc/arm-none-eabi/11.3.1/thumb/v7e-m+fp/hard\libc.a(libc_a-findfp.o) (_malloc_r)
i:/mcu/gnu_tools_for_arm/11.3_rel1/bin/../lib/gcc/arm-none-eabi/11.3.1/thumb/v7e-m+fp/hard\libc.a(libc_a-mlock.o)
                              i:/mcu/gnu_tools_for_arm/11.3_rel1/bin/../lib/gcc/arm-none-eabi/11.3.1/thumb/v7e-m+fp/hard\libc.a(libc_a-freer.o) (__malloc_lock)
i:/mcu/gnu_tools_for_arm/11.3_rel1/bin/../lib/gcc/arm-none-eabi/11.3.1/thumb/v7e-m+fp/hard\libc.a(libc_a-svfprintf.o)
                              i:/mcu/gnu_tools_for_arm/11.3_rel1/bin/../lib/gcc/arm-none-eabi/11.3.1/thumb/v7e-m+fp/hard\libc.a(libc_a-sprintf.o) (_svfprintf_r)
i:/mcu/gnu_tools_for_arm/11.3_rel1/bin/../lib/gcc/arm-none-eabi/11.3.1/thumb/v7e-m+fp/hard\libc.a(libc_a-fclose.o)
                              i:/mcu/gnu_tools_for_arm/11.3_rel1/bin/../lib/gcc/arm-none-eabi/11.3.1/thumb/v7e-m+fp/hard\libc.a(libc_a-findfp.o) (_fclose_r)
i:/mcu/gnu_tools_for_arm/11.3_rel1/bin/../lib/gcc/arm-none-eabi/11.3.1/thumb/v7e-m+fp/hard\libc.a(libc_a-fflush.o)
                              i:/mcu/gnu_tools_for_arm/11.3_rel1/bin/../lib/gcc/arm-none-eabi/11.3.1/thumb/v7e-m+fp/hard\libc.a(libc_a-fclose.o) (__sflush_r)
i:/mcu/gnu_tools_for_arm/11.3_rel1/bin/../lib/gcc/arm-none-eabi/11.3.1/thumb/v7e-m+fp/hard\libc.a(libc_a-strncpy.o)
                              i:/mcu/gnu_tools_for_arm/11.3_rel1/bin/../lib/gcc/arm-none-eabi/11.3.1/thumb/v7e-m+fp/hard\libc.a(libc_a-svfprintf.o) (strncpy)
i:/mcu/gnu_tools_for_arm/11.3_rel1/bin/../lib/gcc/arm-none-eabi/11.3.1/thumb/v7e-m+fp/hard\libc.a(libc_a-locale.o)
                              i:/mcu/gnu_tools_for_arm/11.3_rel1/bin/../lib/gcc/arm-none-eabi/11.3.1/thumb/v7e-m+fp/hard\libc.a(libc_a-svfprintf.o) (__locale_mb_cur_max)
i:/mcu/gnu_tools_for_arm/11.3_rel1/bin/../lib/gcc/arm-none-eabi/11.3.1/thumb/v7e-m+fp/hard\libc.a(libc_a-localeconv.o)
                              i:/mcu/gnu_tools_for_arm/11.3_rel1/bin/../lib/gcc/arm-none-eabi/11.3.1/thumb/v7e-m+fp/hard\libc.a(libc_a-svfprintf.o) (_localeconv_r)
i:/mcu/gnu_tools_for_arm/11.3_rel1/bin/../lib/gcc/arm-none-eabi/11.3.1/thumb/v7e-m+fp/hard\libc.a(libc_a-sbrkr.o)
                              i:/mcu/gnu_tools_for_arm/11.3_rel1/bin/../lib/gcc/arm-none-eabi/11.3.1/thumb/v7e-m+fp/hard\libc.a(libc_a-freer.o) (_sbrk_r)
i:/mcu/gnu_tools_for_arm/11.3_rel1/bin/../lib/gcc/arm-none-eabi/11.3.1/thumb/v7e-m+fp/hard\libc.a(libc_a-fini.o)
                              i:/mcu/gnu_tools_for_arm/11.3_rel1/bin/../lib/gcc/arm-none-eabi/11.3.1/thumb/v7e-m+fp/hard\libc.a(libc_a-__call_atexit.o) (__libc_fini_array)
i:/mcu/gnu_tools_for_arm/11.3_rel1/bin/../lib/gcc/arm-none-eabi/11.3.1/thumb/v7e-m+fp/hard\libc.a(libc_a-strcmp.o)
                              i:/mcu/gnu_tools_for_arm/11.3_rel1/bin/../lib/gcc/arm-none-eabi/11.3.1/thumb/v7e-m+fp/hard\libc.a(libc_a-locale.o) (strcmp)
i:/mcu/gnu_tools_for_arm/11.3_rel1/bin/../lib/gcc/arm-none-eabi/11.3.1/thumb/v7e-m+fp/hard\libc.a(libc_a-strcpy.o)
                              i:/mcu/gnu_tools_for_arm/11.3_rel1/bin/../lib/gcc/arm-none-eabi/11.3.1/thumb/v7e-m+fp/hard\libc.a(libc_a-locale.o) (strcpy)
i:/mcu/gnu_tools_for_arm/11.3_rel1/bin/../lib/gcc/arm-none-eabi/11.3.1/thumb/v7e-m+fp/hard\libc.a(libc_a-memchr.o)
                              i:/mcu/gnu_tools_for_arm/11.3_rel1/bin/../lib/gcc/arm-none-eabi/11.3.1/thumb/v7e-m+fp/hard\libc.a(libc_a-svfprintf.o) (memchr)
i:/mcu/gnu_tools_for_arm/11.3_rel1/bin/../lib/gcc/arm-none-eabi/11.3.1/thumb/v7e-m+fp/hard\libc.a(libc_a-strlen.o)
                              i:/mcu/gnu_tools_for_arm/11.3_rel1/bin/../lib/gcc/arm-none-eabi/11.3.1/thumb/v7e-m+fp/hard\libc.a(libc_a-svfprintf.o) (strlen)
i:/mcu/gnu_tools_for_arm/11.3_rel1/bin/../lib/gcc/arm-none-eabi/11.3.1/thumb/v7e-m+fp/hard\libc.a(libm_a-s_frexp.o)
                              i:/mcu/gnu_tools_for_arm/11.3_rel1/bin/../lib/gcc/arm-none-eabi/11.3.1/thumb/v7e-m+fp/hard\libc.a(libc_a-svfprintf.o) (frexp)
i:/mcu/gnu_tools_for_arm/11.3_rel1/bin/../lib/gcc/arm-none-eabi/11.3.1/thumb/v7e-m+fp/hard\libc.a(libc_a-__atexit.o)
                              i:/mcu/gnu_tools_for_arm/11.3_rel1/bin/../lib/gcc/arm-none-eabi/11.3.1/thumb/v7e-m+fp/hard\libc.a(libc_a-atexit.o) (__register_exitproc)
i:/mcu/gnu_tools_for_arm/11.3_rel1/bin/../lib/gcc/arm-none-eabi/11.3.1/thumb/v7e-m+fp/hard\libc.a(libc_a-dtoa.o)
                              i:/mcu/gnu_tools_for_arm/11.3_rel1/bin/../lib/gcc/arm-none-eabi/11.3.1/thumb/v7e-m+fp/hard\libc.a(libc_a-svfprintf.o) (_dtoa_r)
i:/mcu/gnu_tools_for_arm/11.3_rel1/bin/../lib/gcc/arm-none-eabi/11.3.1/thumb/v7e-m+fp/hard\libc.a(libc_a-getenv_r.o)
                              i:/mcu/gnu_tools_for_arm/11.3_rel1/bin/../lib/gcc/arm-none-eabi/11.3.1/thumb/v7e-m+fp/hard\libc.a(libc_a-locale.o) (_getenv_r)
i:/mcu/gnu_tools_for_arm/11.3_rel1/bin/../lib/gcc/arm-none-eabi/11.3.1/thumb/v7e-m+fp/hard\libc.a(libc_a-mbtowc_r.o)
                              i:/mcu/gnu_tools_for_arm/11.3_rel1/bin/../lib/gcc/arm-none-eabi/11.3.1/thumb/v7e-m+fp/hard\libc.a(libc_a-locale.o) (__ascii_mbtowc)
i:/mcu/gnu_tools_for_arm/11.3_rel1/bin/../lib/gcc/arm-none-eabi/11.3.1/thumb/v7e-m+fp/hard\libc.a(libc_a-mprec.o)
                              i:/mcu/gnu_tools_for_arm/11.3_rel1/bin/../lib/gcc/arm-none-eabi/11.3.1/thumb/v7e-m+fp/hard\libc.a(libc_a-dtoa.o) (_Balloc)
i:/mcu/gnu_tools_for_arm/11.3_rel1/bin/../lib/gcc/arm-none-eabi/11.3.1/thumb/v7e-m+fp/hard\libc.a(libc_a-strtol.o)
                              i:/mcu/gnu_tools_for_arm/11.3_rel1/bin/../lib/gcc/arm-none-eabi/11.3.1/thumb/v7e-m+fp/hard\libc.a(libc_a-locale.o) (strtol)
i:/mcu/gnu_tools_for_arm/11.3_rel1/bin/../lib/gcc/arm-none-eabi/11.3.1/thumb/v7e-m+fp/hard\libc.a(libc_a-wctomb_r.o)
                              i:/mcu/gnu_tools_for_arm/11.3_rel1/bin/../lib/gcc/arm-none-eabi/11.3.1/thumb/v7e-m+fp/hard\libc.a(libc_a-locale.o) (__ascii_wctomb)
i:/mcu/gnu_tools_for_arm/11.3_rel1/bin/../lib/gcc/arm-none-eabi/11.3.1/thumb/v7e-m+fp/hard\libc.a(libc_a-wcrtomb.o)
                              i:/mcu/gnu_tools_for_arm/11.3_rel1/bin/../lib/gcc/arm-none-eabi/11.3.1/thumb/v7e-m+fp/hard\libc.a(libc_a-svfprintf.o) (_wcrtomb_r)
i:/mcu/gnu_tools_for_arm/11.3_rel1/bin/../lib/gcc/arm-none-eabi/11.3.1/thumb/v7e-m+fp/hard\libc.a(libc_a-wcsrtombs.o)
                              i:/mcu/gnu_tools_for_arm/11.3_rel1/bin/../lib/gcc/arm-none-eabi/11.3.1/thumb/v7e-m+fp/hard\libc.a(libc_a-svfprintf.o) (_wcsrtombs_r)
i:/mcu/gnu_tools_for_arm/11.3_rel1/bin/../lib/gcc/arm-none-eabi/11.3.1/thumb/v7e-m+fp/hard\libc.a(libc_a-ctype_.o)
                              i:/mcu/gnu_tools_for_arm/11.3_rel1/bin/../lib/gcc/arm-none-eabi/11.3.1/thumb/v7e-m+fp/hard\libc.a(libc_a-locale.o) (__set_ctype)
i:/mcu/gnu_tools_for_arm/11.3_rel1/bin/../lib/gcc/arm-none-eabi/11.3.1/thumb/v7e-m+fp/hard\libc.a(libc_a-svfiprintf.o)
                              i:/mcu/gnu_tools_for_arm/11.3_rel1/bin/../lib/gcc/arm-none-eabi/11.3.1/thumb/v7e-m+fp/hard\libc.a(libc_a-svfprintf.o) (__ssprint_r)
i:/mcu/gnu_tools_for_arm/11.3_rel1/bin/../lib/gcc/arm-none-eabi/11.3.1/thumb/v7e-m+fp/hard\libc.a(libc_a-memmove.o)
                              i:/mcu/gnu_tools_for_arm/11.3_rel1/bin/../lib/gcc/arm-none-eabi/11.3.1/thumb/v7e-m+fp/hard\libc.a(libc_a-svfiprintf.o) (memmove)
i:/mcu/gnu_tools_for_arm/11.3_rel1/bin/../lib/gcc/arm-none-eabi/11.3.1/thumb/v7e-m+fp/hard\libc.a(libc_a-strcasecmp.o)
                              i:/mcu/gnu_tools_for_arm/11.3_rel1/bin/../lib/gcc/arm-none-eabi/11.3.1/thumb/v7e-m+fp/hard\libc.a(libc_a-locale.o) (strcasecmp)
i:/mcu/gnu_tools_for_arm/11.3_rel1/bin/../lib/gcc/arm-none-eabi/11.3.1/thumb/v7e-m+fp/hard\libc.a(libc_a-strcat.o)
                              i:/mcu/gnu_tools_for_arm/11.3_rel1/bin/../lib/gcc/arm-none-eabi/11.3.1/thumb/v7e-m+fp/hard\libc.a(libc_a-locale.o) (strcat)
i:/mcu/gnu_tools_for_arm/11.3_rel1/bin/../lib/gcc/arm-none-eabi/11.3.1/thumb/v7e-m+fp/hard\libc.a(libc_a-strchr.o)
                              i:/mcu/gnu_tools_for_arm/11.3_rel1/bin/../lib/gcc/arm-none-eabi/11.3.1/thumb/v7e-m+fp/hard\libc.a(libc_a-locale.o) (strchr)
i:/mcu/gnu_tools_for_arm/11.3_rel1/bin/../lib/gcc/arm-none-eabi/11.3.1/thumb/v7e-m+fp/hard\libc.a(libc_a-strlcpy.o)
                              i:/mcu/gnu_tools_for_arm/11.3_rel1/bin/../lib/gcc/arm-none-eabi/11.3.1/thumb/v7e-m+fp/hard\libc.a(libc_a-locale.o) (strlcpy)
i:/mcu/gnu_tools_for_arm/11.3_rel1/bin/../lib/gcc/arm-none-eabi/11.3.1/thumb/v7e-m+fp/hard\libc.a(libc_a-strncasecmp.o)
                              i:/mcu/gnu_tools_for_arm/11.3_rel1/bin/../lib/gcc/arm-none-eabi/11.3.1/thumb/v7e-m+fp/hard\libc.a(libc_a-locale.o) (strncasecmp)
i:/mcu/gnu_tools_for_arm/11.3_rel1/bin/../lib/gcc/arm-none-eabi/11.3.1/thumb/v7e-m+fp/hard\libc.a(libc_a-strncmp.o)
                              i:/mcu/gnu_tools_for_arm/11.3_rel1/bin/../lib/gcc/arm-none-eabi/11.3.1/thumb/v7e-m+fp/hard\libc.a(libc_a-getenv_r.o) (strncmp)
i:/mcu/gnu_tools_for_arm/11.3_rel1/bin/../lib/gcc/arm-none-eabi/11.3.1/thumb/v7e-m+fp/hard\libc.a(libc_a-memcpy.o)
                              i:/mcu/gnu_tools_for_arm/11.3_rel1/bin/../lib/gcc/arm-none-eabi/11.3.1/thumb/v7e-m+fp/hard\libc.a(libc_a-dtoa.o) (memcpy)
i:/mcu/gnu_tools_for_arm/11.3_rel1/bin/../lib/gcc/arm-none-eabi/11.3.1/thumb/v7e-m+fp/hard\libc.a(libc_a-assert.o)
                              i:/mcu/gnu_tools_for_arm/11.3_rel1/bin/../lib/gcc/arm-none-eabi/11.3.1/thumb/v7e-m+fp/hard\libc.a(libc_a-dtoa.o) (__assert_func)
i:/mcu/gnu_tools_for_arm/11.3_rel1/bin/../lib/gcc/arm-none-eabi/11.3.1/thumb/v7e-m+fp/hard\libc.a(libc_a-callocr.o)
                              i:/mcu/gnu_tools_for_arm/11.3_rel1/bin/../lib/gcc/arm-none-eabi/11.3.1/thumb/v7e-m+fp/hard\libc.a(libc_a-mprec.o) (_calloc_r)
i:/mcu/gnu_tools_for_arm/11.3_rel1/bin/../lib/gcc/arm-none-eabi/11.3.1/thumb/v7e-m+fp/hard\libc.a(libc_a-envlock.o)
                              i:/mcu/gnu_tools_for_arm/11.3_rel1/bin/../lib/gcc/arm-none-eabi/11.3.1/thumb/v7e-m+fp/hard\libc.a(libc_a-getenv_r.o) (__env_lock)
i:/mcu/gnu_tools_for_arm/11.3_rel1/bin/../lib/gcc/arm-none-eabi/11.3.1/thumb/v7e-m+fp/hard\libc.a(libc_a-reallocr.o)
                              i:/mcu/gnu_tools_for_arm/11.3_rel1/bin/../lib/gcc/arm-none-eabi/11.3.1/thumb/v7e-m+fp/hard\libc.a(libc_a-svfiprintf.o) (_realloc_r)
i:/mcu/gnu_tools_for_arm/11.3_rel1/bin/../lib/gcc/arm-none-eabi/11.3.1/thumb/v7e-m+fp/hard\libc.a(libc_a-wcsnrtombs.o)
                              i:/mcu/gnu_tools_for_arm/11.3_rel1/bin/../lib/gcc/arm-none-eabi/11.3.1/thumb/v7e-m+fp/hard\libc.a(libc_a-wcsrtombs.o) (_wcsnrtombs_r)
i:/mcu/gnu_tools_for_arm/11.3_rel1/bin/../lib/gcc/arm-none-eabi/11.3.1/thumb/v7e-m+fp/hard\libc.a(libc_a-fiprintf.o)
                              i:/mcu/gnu_tools_for_arm/11.3_rel1/bin/../lib/gcc/arm-none-eabi/11.3.1/thumb/v7e-m+fp/hard\libc.a(libc_a-assert.o) (fiprintf)
i:/mcu/gnu_tools_for_arm/11.3_rel1/bin/../lib/gcc/arm-none-eabi/11.3.1/thumb/v7e-m+fp/hard\libc.a(libc_a-vfiprintf.o)
                              i:/mcu/gnu_tools_for_arm/11.3_rel1/bin/../lib/gcc/arm-none-eabi/11.3.1/thumb/v7e-m+fp/hard\libc.a(libc_a-fiprintf.o) (_vfiprintf_r)
i:/mcu/gnu_tools_for_arm/11.3_rel1/bin/../lib/gcc/arm-none-eabi/11.3.1/thumb/v7e-m+fp/hard\libc.a(libc_a-fvwrite.o)
                              i:/mcu/gnu_tools_for_arm/11.3_rel1/bin/../lib/gcc/arm-none-eabi/11.3.1/thumb/v7e-m+fp/hard\libc.a(libc_a-vfiprintf.o) (__sfvwrite_r)
i:/mcu/gnu_tools_for_arm/11.3_rel1/bin/../lib/gcc/arm-none-eabi/11.3.1/thumb/v7e-m+fp/hard\libc.a(libc_a-wsetup.o)
                              i:/mcu/gnu_tools_for_arm/11.3_rel1/bin/../lib/gcc/arm-none-eabi/11.3.1/thumb/v7e-m+fp/hard\libc.a(libc_a-vfiprintf.o) (__swsetup_r)
i:/mcu/gnu_tools_for_arm/11.3_rel1/bin/../lib/gcc/arm-none-eabi/11.3.1/thumb/v7e-m+fp/hard\libc.a(libc_a-fputwc.o)
                              i:/mcu/gnu_tools_for_arm/11.3_rel1/bin/../lib/gcc/arm-none-eabi/11.3.1/thumb/v7e-m+fp/hard\libc.a(libc_a-vfiprintf.o) (_fputwc_r)
i:/mcu/gnu_tools_for_arm/11.3_rel1/bin/../lib/gcc/arm-none-eabi/11.3.1/thumb/v7e-m+fp/hard\libc.a(libc_a-abort.o)
                              i:/mcu/gnu_tools_for_arm/11.3_rel1/bin/../lib/gcc/arm-none-eabi/11.3.1/thumb/v7e-m+fp/hard\libc.a(libc_a-assert.o) (abort)
i:/mcu/gnu_tools_for_arm/11.3_rel1/bin/../lib/gcc/arm-none-eabi/11.3.1/thumb/v7e-m+fp/hard\libc.a(libc_a-makebuf.o)
                              i:/mcu/gnu_tools_for_arm/11.3_rel1/bin/../lib/gcc/arm-none-eabi/11.3.1/thumb/v7e-m+fp/hard\libc.a(libc_a-wsetup.o) (__smakebuf_r)
i:/mcu/gnu_tools_for_arm/11.3_rel1/bin/../lib/gcc/arm-none-eabi/11.3.1/thumb/v7e-m+fp/hard\libc.a(libc_a-wbuf.o)
                              i:/mcu/gnu_tools_for_arm/11.3_rel1/bin/../lib/gcc/arm-none-eabi/11.3.1/thumb/v7e-m+fp/hard\libc.a(libc_a-fputwc.o) (__swbuf_r)
i:/mcu/gnu_tools_for_arm/11.3_rel1/bin/../lib/gcc/arm-none-eabi/11.3.1/thumb/v7e-m+fp/hard\libc.a(libc_a-signal.o)
                              i:/mcu/gnu_tools_for_arm/11.3_rel1/bin/../lib/gcc/arm-none-eabi/11.3.1/thumb/v7e-m+fp/hard\libc.a(libc_a-abort.o) (raise)
i:/mcu/gnu_tools_for_arm/11.3_rel1/bin/../lib/gcc/arm-none-eabi/11.3.1/thumb/v7e-m+fp/hard\libc.a(libc_a-fstatr.o)
                              i:/mcu/gnu_tools_for_arm/11.3_rel1/bin/../lib/gcc/arm-none-eabi/11.3.1/thumb/v7e-m+fp/hard\libc.a(libc_a-makebuf.o) (_fstat_r)
i:/mcu/gnu_tools_for_arm/11.3_rel1/bin/../lib/gcc/arm-none-eabi/11.3.1/thumb/v7e-m+fp/hard\libc.a(libc_a-isattyr.o)
                              i:/mcu/gnu_tools_for_arm/11.3_rel1/bin/../lib/gcc/arm-none-eabi/11.3.1/thumb/v7e-m+fp/hard\libc.a(libc_a-makebuf.o) (_isatty_r)
i:/mcu/gnu_tools_for_arm/11.3_rel1/bin/../lib/gcc/arm-none-eabi/11.3.1/thumb/v7e-m+fp/hard\libc.a(libc_a-signalr.o)
                              i:/mcu/gnu_tools_for_arm/11.3_rel1/bin/../lib/gcc/arm-none-eabi/11.3.1/thumb/v7e-m+fp/hard\libc.a(libc_a-signal.o) (_kill_r)
i:/mcu/gnu_tools_for_arm/11.3_rel1/bin/../lib/gcc/arm-none-eabi/11.3.1/thumb/v7e-m+fp/hard\libnosys.a(sbrk.o)
                              i:/mcu/gnu_tools_for_arm/11.3_rel1/bin/../lib/gcc/arm-none-eabi/11.3.1/thumb/v7e-m+fp/hard\libc.a(libc_a-sbrkr.o) (_sbrk)
i:/mcu/gnu_tools_for_arm/11.3_rel1/bin/../lib/gcc/arm-none-eabi/11.3.1/thumb/v7e-m+fp/hard\libgcc.a(_arm_muldf3.o)
                              i:/mcu/gnu_tools_for_arm/11.3_rel1/bin/../lib/gcc/arm-none-eabi/11.3.1/thumb/v7e-m+fp/hard\libc.a(libc_a-svfprintf.o) (__aeabi_dmul)
i:/mcu/gnu_tools_for_arm/11.3_rel1/bin/../lib/gcc/arm-none-eabi/11.3.1/thumb/v7e-m+fp/hard\libgcc.a(_arm_addsubdf3.o)
                              i:/mcu/gnu_tools_for_arm/11.3_rel1/bin/../lib/gcc/arm-none-eabi/11.3.1/thumb/v7e-m+fp/hard\libc.a(libc_a-svfprintf.o) (__aeabi_dsub)
i:/mcu/gnu_tools_for_arm/11.3_rel1/bin/../lib/gcc/arm-none-eabi/11.3.1/thumb/v7e-m+fp/hard\libgcc.a(_arm_muldivdf3.o)
                              i:/mcu/gnu_tools_for_arm/11.3_rel1/bin/../lib/gcc/arm-none-eabi/11.3.1/thumb/v7e-m+fp/hard\libc.a(libc_a-dtoa.o) (__aeabi_ddiv)
i:/mcu/gnu_tools_for_arm/11.3_rel1/bin/../lib/gcc/arm-none-eabi/11.3.1/thumb/v7e-m+fp/hard\libgcc.a(_arm_cmpdf2.o)
                              i:/mcu/gnu_tools_for_arm/11.3_rel1/bin/../lib/gcc/arm-none-eabi/11.3.1/thumb/v7e-m+fp/hard\libc.a(libc_a-svfprintf.o) (__aeabi_dcmpeq)
i:/mcu/gnu_tools_for_arm/11.3_rel1/bin/../lib/gcc/arm-none-eabi/11.3.1/thumb/v7e-m+fp/hard\libgcc.a(_arm_unorddf2.o)
                              i:/mcu/gnu_tools_for_arm/11.3_rel1/bin/../lib/gcc/arm-none-eabi/11.3.1/thumb/v7e-m+fp/hard\libc.a(libc_a-svfprintf.o) (__aeabi_dcmpun)
i:/mcu/gnu_tools_for_arm/11.3_rel1/bin/../lib/gcc/arm-none-eabi/11.3.1/thumb/v7e-m+fp/hard\libgcc.a(_arm_fixdfsi.o)
                              i:/mcu/gnu_tools_for_arm/11.3_rel1/bin/../lib/gcc/arm-none-eabi/11.3.1/thumb/v7e-m+fp/hard\libc.a(libc_a-svfprintf.o) (__aeabi_d2iz)

Discarded input sections

 .rodata.all_implied_fbits
                0x00000000       0x24 i:/mcu/gnu_tools_for_arm/11.3_rel1/bin/../lib/gcc/arm-none-eabi/11.3.1/thumb/v7e-m+fp/hard/crtbegin.o
 .rodata        0x00000000        0x8 build/flash.o
 .text.__fp_lock
                0x00000000       0x1c i:/mcu/gnu_tools_for_arm/11.3_rel1/bin/../lib/gcc/arm-none-eabi/11.3.1/thumb/v7e-m+fp/hard\libc.a(libc_a-findfp.o)
 .text.__fp_unlock
                0x00000000       0x1c i:/mcu/gnu_tools_for_arm/11.3_rel1/bin/../lib/gcc/arm-none-eabi/11.3.1/thumb/v7e-m+fp/hard\libc.a(libc_a-findfp.o)
 .text.__sfp    0x00000000       0xc8 i:/mcu/gnu_tools_for_arm/11.3_rel1/bin/../lib/gcc/arm-none-eabi/11.3.1/thumb/v7e-m+fp/hard\libc.a(libc_a-findfp.o)
 .text.__fp_lock_all
                0x00000000       0x24 i:/mcu/gnu_tools_for_arm/11.3_rel1/bin/../lib/gcc/arm-none-eabi/11.3.1/thumb/v7e-m+fp/hard\libc.a(libc_a-findfp.o)
 .text.__fp_unlock_all
                0x00000000       0x24 i:/mcu/gnu_tools_for_arm/11.3_rel1/bin/../lib/gcc/arm-none-eabi/11.3.1/thumb/v7e-m+fp/hard\libc.a(libc_a-findfp.o)
 .text._sprintf_r
                0x00000000       0x38 i:/mcu/gnu_tools_for_arm/11.3_rel1/bin/../lib/gcc/arm-none-eabi/11.3.1/thumb/v7e-m+fp/hard\libc.a(libc_a-sprintf.o)
 .text.__seofread
                0x00000000        0x4 i:/mcu/gnu_tools_for_arm/11.3_rel1/bin/../lib/gcc/arm-none-eabi/11.3.1/thumb/v7e-m+fp/hard\libc.a(libc_a-stdio.o)
 .text._reclaim_reent
                0x00000000       0x5c i:/mcu/gnu_tools_for_arm/11.3_rel1/bin/../lib/gcc/arm-none-eabi/11.3.1/thumb/v7e-m+fp/hard\libc.a(libc_a-reent.o)
 .text.__retarget_lock_init
                0x00000000        0x4 i:/mcu/gnu_tools_for_arm/11.3_rel1/bin/../lib/gcc/arm-none-eabi/11.3.1/thumb/v7e-m+fp/hard\libc.a(libc_a-lock.o)
 .text.__retarget_lock_close
                0x00000000        0x4 i:/mcu/gnu_tools_for_arm/11.3_rel1/bin/../lib/gcc/arm-none-eabi/11.3.1/thumb/v7e-m+fp/hard\libc.a(libc_a-lock.o)
 .text.__retarget_lock_acquire
                0x00000000        0x4 i:/mcu/gnu_tools_for_arm/11.3_rel1/bin/../lib/gcc/arm-none-eabi/11.3.1/thumb/v7e-m+fp/hard\libc.a(libc_a-lock.o)
 .text.__retarget_lock_try_acquire
                0x00000000        0x4 i:/mcu/gnu_tools_for_arm/11.3_rel1/bin/../lib/gcc/arm-none-eabi/11.3.1/thumb/v7e-m+fp/hard\libc.a(libc_a-lock.o)
 .text.__retarget_lock_try_acquire_recursive
                0x00000000        0x4 i:/mcu/gnu_tools_for_arm/11.3_rel1/bin/../lib/gcc/arm-none-eabi/11.3.1/thumb/v7e-m+fp/hard\libc.a(libc_a-lock.o)
 .text.__retarget_lock_release
                0x00000000        0x4 i:/mcu/gnu_tools_for_arm/11.3_rel1/bin/../lib/gcc/arm-none-eabi/11.3.1/thumb/v7e-m+fp/hard\libc.a(libc_a-lock.o)
 .bss.__lock___arc4random_mutex
                0x00000000        0x1 i:/mcu/gnu_tools_for_arm/11.3_rel1/bin/../lib/gcc/arm-none-eabi/11.3.1/thumb/v7e-m+fp/hard\libc.a(libc_a-lock.o)
 .bss.__lock___at_quick_exit_mutex
                0x00000000        0x1 i:/mcu/gnu_tools_for_arm/11.3_rel1/bin/../lib/gcc/arm-none-eabi/11.3.1/thumb/v7e-m+fp/hard\libc.a(libc_a-lock.o)
 .bss.__lock___dd_hash_mutex
                0x00000000        0x1 i:/mcu/gnu_tools_for_arm/11.3_rel1/bin/../lib/gcc/arm-none-eabi/11.3.1/thumb/v7e-m+fp/hard\libc.a(libc_a-lock.o)
 .bss.__lock___env_recursive_mutex
                0x00000000        0x1 i:/mcu/gnu_tools_for_arm/11.3_rel1/bin/../lib/gcc/arm-none-eabi/11.3.1/thumb/v7e-m+fp/hard\libc.a(libc_a-lock.o)
 .bss.__lock___tz_mutex
                0x00000000        0x1 i:/mcu/gnu_tools_for_arm/11.3_rel1/bin/../lib/gcc/arm-none-eabi/11.3.1/thumb/v7e-m+fp/hard\libc.a(libc_a-lock.o)
 .text.fclose   0x00000000       0x10 i:/mcu/gnu_tools_for_arm/11.3_rel1/bin/../lib/gcc/arm-none-eabi/11.3.1/thumb/v7e-m+fp/hard\libc.a(libc_a-fclose.o)
 .text.fflush   0x00000000       0x74 i:/mcu/gnu_tools_for_arm/11.3_rel1/bin/../lib/gcc/arm-none-eabi/11.3.1/thumb/v7e-m+fp/hard\libc.a(libc_a-fflush.o)
 .rodata.currentlocale.str1.4
                0x00000000        0x2 i:/mcu/gnu_tools_for_arm/11.3_rel1/bin/../lib/gcc/arm-none-eabi/11.3.1/thumb/v7e-m+fp/hard\libc.a(libc_a-locale.o)
 .text.currentlocale
                0x00000000       0x58 i:/mcu/gnu_tools_for_arm/11.3_rel1/bin/../lib/gcc/arm-none-eabi/11.3.1/thumb/v7e-m+fp/hard\libc.a(libc_a-locale.o)
 .rodata.__loadlocale.str1.4
                0x00000000       0xd6 i:/mcu/gnu_tools_for_arm/11.3_rel1/bin/../lib/gcc/arm-none-eabi/11.3.1/thumb/v7e-m+fp/hard\libc.a(libc_a-locale.o)
 .text.__loadlocale
                0x00000000      0x628 i:/mcu/gnu_tools_for_arm/11.3_rel1/bin/../lib/gcc/arm-none-eabi/11.3.1/thumb/v7e-m+fp/hard\libc.a(libc_a-locale.o)
 .rodata.__get_locale_env.str1.4
                0x00000000        0xd i:/mcu/gnu_tools_for_arm/11.3_rel1/bin/../lib/gcc/arm-none-eabi/11.3.1/thumb/v7e-m+fp/hard\libc.a(libc_a-locale.o)
 .text.__get_locale_env
                0x00000000       0x50 i:/mcu/gnu_tools_for_arm/11.3_rel1/bin/../lib/gcc/arm-none-eabi/11.3.1/thumb/v7e-m+fp/hard\libc.a(libc_a-locale.o)
 .text._setlocale_r.part.0
                0x00000000      0x21c i:/mcu/gnu_tools_for_arm/11.3_rel1/bin/../lib/gcc/arm-none-eabi/11.3.1/thumb/v7e-m+fp/hard\libc.a(libc_a-locale.o)
 .text._setlocale_r
                0x00000000       0x34 i:/mcu/gnu_tools_for_arm/11.3_rel1/bin/../lib/gcc/arm-none-eabi/11.3.1/thumb/v7e-m+fp/hard\libc.a(libc_a-locale.o)
 .text.setlocale
                0x00000000       0x34 i:/mcu/gnu_tools_for_arm/11.3_rel1/bin/../lib/gcc/arm-none-eabi/11.3.1/thumb/v7e-m+fp/hard\libc.a(libc_a-locale.o)
 .bss._PathLocale
                0x00000000        0x4 i:/mcu/gnu_tools_for_arm/11.3_rel1/bin/../lib/gcc/arm-none-eabi/11.3.1/thumb/v7e-m+fp/hard\libc.a(libc_a-locale.o)
 .bss.global_locale_string
                0x00000000       0xe7 i:/mcu/gnu_tools_for_arm/11.3_rel1/bin/../lib/gcc/arm-none-eabi/11.3.1/thumb/v7e-m+fp/hard\libc.a(libc_a-locale.o)
 .bss.new_categories.1
                0x00000000       0xe0 i:/mcu/gnu_tools_for_arm/11.3_rel1/bin/../lib/gcc/arm-none-eabi/11.3.1/thumb/v7e-m+fp/hard\libc.a(libc_a-locale.o)
 .bss.saved_categories.0
                0x00000000       0xe0 i:/mcu/gnu_tools_for_arm/11.3_rel1/bin/../lib/gcc/arm-none-eabi/11.3.1/thumb/v7e-m+fp/hard\libc.a(libc_a-locale.o)
 .rodata.__C_locale
                0x00000000      0x16c i:/mcu/gnu_tools_for_arm/11.3_rel1/bin/../lib/gcc/arm-none-eabi/11.3.1/thumb/v7e-m+fp/hard\libc.a(libc_a-locale.o)
 .rodata.categories
                0x00000000       0x1c i:/mcu/gnu_tools_for_arm/11.3_rel1/bin/../lib/gcc/arm-none-eabi/11.3.1/thumb/v7e-m+fp/hard\libc.a(libc_a-locale.o)
 .text.__localeconv_l
                0x00000000        0x4 i:/mcu/gnu_tools_for_arm/11.3_rel1/bin/../lib/gcc/arm-none-eabi/11.3.1/thumb/v7e-m+fp/hard\libc.a(libc_a-localeconv.o)
 .text.localeconv
                0x00000000        0x8 i:/mcu/gnu_tools_for_arm/11.3_rel1/bin/../lib/gcc/arm-none-eabi/11.3.1/thumb/v7e-m+fp/hard\libc.a(libc_a-localeconv.o)
 .text.strcpy   0x00000000       0xbc i:/mcu/gnu_tools_for_arm/11.3_rel1/bin/../lib/gcc/arm-none-eabi/11.3.1/thumb/v7e-m+fp/hard\libc.a(libc_a-strcpy.o)
 .text._findenv_r
                0x00000000       0x80 i:/mcu/gnu_tools_for_arm/11.3_rel1/bin/../lib/gcc/arm-none-eabi/11.3.1/thumb/v7e-m+fp/hard\libc.a(libc_a-getenv_r.o)
 .text._getenv_r
                0x00000000       0x10 i:/mcu/gnu_tools_for_arm/11.3_rel1/bin/../lib/gcc/arm-none-eabi/11.3.1/thumb/v7e-m+fp/hard\libc.a(libc_a-getenv_r.o)
 .text._mbtowc_r
                0x00000000       0x14 i:/mcu/gnu_tools_for_arm/11.3_rel1/bin/../lib/gcc/arm-none-eabi/11.3.1/thumb/v7e-m+fp/hard\libc.a(libc_a-mbtowc_r.o)
 .text.__utf8_mbtowc
                0x00000000      0x1d0 i:/mcu/gnu_tools_for_arm/11.3_rel1/bin/../lib/gcc/arm-none-eabi/11.3.1/thumb/v7e-m+fp/hard\libc.a(libc_a-mbtowc_r.o)
 .text.__sjis_mbtowc
                0x00000000       0x90 i:/mcu/gnu_tools_for_arm/11.3_rel1/bin/../lib/gcc/arm-none-eabi/11.3.1/thumb/v7e-m+fp/hard\libc.a(libc_a-mbtowc_r.o)
 .text.__eucjp_mbtowc
                0x00000000       0xc0 i:/mcu/gnu_tools_for_arm/11.3_rel1/bin/../lib/gcc/arm-none-eabi/11.3.1/thumb/v7e-m+fp/hard\libc.a(libc_a-mbtowc_r.o)
 .text.__jis_mbtowc
                0x00000000      0x144 i:/mcu/gnu_tools_for_arm/11.3_rel1/bin/../lib/gcc/arm-none-eabi/11.3.1/thumb/v7e-m+fp/hard\libc.a(libc_a-mbtowc_r.o)
 .rodata.JIS_action_table
                0x00000000       0x48 i:/mcu/gnu_tools_for_arm/11.3_rel1/bin/../lib/gcc/arm-none-eabi/11.3.1/thumb/v7e-m+fp/hard\libc.a(libc_a-mbtowc_r.o)
 .rodata.JIS_state_table
                0x00000000       0x48 i:/mcu/gnu_tools_for_arm/11.3_rel1/bin/../lib/gcc/arm-none-eabi/11.3.1/thumb/v7e-m+fp/hard\libc.a(libc_a-mbtowc_r.o)
 .text.__s2b    0x00000000       0xb0 i:/mcu/gnu_tools_for_arm/11.3_rel1/bin/../lib/gcc/arm-none-eabi/11.3.1/thumb/v7e-m+fp/hard\libc.a(libc_a-mprec.o)
 .text.__ulp    0x00000000       0x64 i:/mcu/gnu_tools_for_arm/11.3_rel1/bin/../lib/gcc/arm-none-eabi/11.3.1/thumb/v7e-m+fp/hard\libc.a(libc_a-mprec.o)
 .text.__b2d    0x00000000       0xc4 i:/mcu/gnu_tools_for_arm/11.3_rel1/bin/../lib/gcc/arm-none-eabi/11.3.1/thumb/v7e-m+fp/hard\libc.a(libc_a-mprec.o)
 .text.__ratio  0x00000000       0x5c i:/mcu/gnu_tools_for_arm/11.3_rel1/bin/../lib/gcc/arm-none-eabi/11.3.1/thumb/v7e-m+fp/hard\libc.a(libc_a-mprec.o)
 .text._mprec_log10
                0x00000000       0x40 i:/mcu/gnu_tools_for_arm/11.3_rel1/bin/../lib/gcc/arm-none-eabi/11.3.1/thumb/v7e-m+fp/hard\libc.a(libc_a-mprec.o)
 .text.__copybits
                0x00000000       0x5c i:/mcu/gnu_tools_for_arm/11.3_rel1/bin/../lib/gcc/arm-none-eabi/11.3.1/thumb/v7e-m+fp/hard\libc.a(libc_a-mprec.o)
 .text.__any_on
                0x00000000       0x64 i:/mcu/gnu_tools_for_arm/11.3_rel1/bin/../lib/gcc/arm-none-eabi/11.3.1/thumb/v7e-m+fp/hard\libc.a(libc_a-mprec.o)
 .rodata.__mprec_tinytens
                0x00000000       0x28 i:/mcu/gnu_tools_for_arm/11.3_rel1/bin/../lib/gcc/arm-none-eabi/11.3.1/thumb/v7e-m+fp/hard\libc.a(libc_a-mprec.o)
 .text._strtol_l.constprop.0
                0x00000000      0x144 i:/mcu/gnu_tools_for_arm/11.3_rel1/bin/../lib/gcc/arm-none-eabi/11.3.1/thumb/v7e-m+fp/hard\libc.a(libc_a-strtol.o)
 .text._strtol_r
                0x00000000        0x4 i:/mcu/gnu_tools_for_arm/11.3_rel1/bin/../lib/gcc/arm-none-eabi/11.3.1/thumb/v7e-m+fp/hard\libc.a(libc_a-strtol.o)
 .text.strtol_l
                0x00000000       0x1c i:/mcu/gnu_tools_for_arm/11.3_rel1/bin/../lib/gcc/arm-none-eabi/11.3.1/thumb/v7e-m+fp/hard\libc.a(libc_a-strtol.o)
 .text.strtol   0x00000000       0x1c i:/mcu/gnu_tools_for_arm/11.3_rel1/bin/../lib/gcc/arm-none-eabi/11.3.1/thumb/v7e-m+fp/hard\libc.a(libc_a-strtol.o)
 .text._wctomb_r
                0x00000000       0x14 i:/mcu/gnu_tools_for_arm/11.3_rel1/bin/../lib/gcc/arm-none-eabi/11.3.1/thumb/v7e-m+fp/hard\libc.a(libc_a-wctomb_r.o)
 .text.__utf8_wctomb
                0x00000000       0xa0 i:/mcu/gnu_tools_for_arm/11.3_rel1/bin/../lib/gcc/arm-none-eabi/11.3.1/thumb/v7e-m+fp/hard\libc.a(libc_a-wctomb_r.o)
 .text.__sjis_wctomb
                0x00000000       0x58 i:/mcu/gnu_tools_for_arm/11.3_rel1/bin/../lib/gcc/arm-none-eabi/11.3.1/thumb/v7e-m+fp/hard\libc.a(libc_a-wctomb_r.o)
 .text.__eucjp_wctomb
                0x00000000       0x7c i:/mcu/gnu_tools_for_arm/11.3_rel1/bin/../lib/gcc/arm-none-eabi/11.3.1/thumb/v7e-m+fp/hard\libc.a(libc_a-wctomb_r.o)
 .text.__jis_wctomb
                0x00000000       0x7c i:/mcu/gnu_tools_for_arm/11.3_rel1/bin/../lib/gcc/arm-none-eabi/11.3.1/thumb/v7e-m+fp/hard\libc.a(libc_a-wctomb_r.o)
 .text.wcrtomb  0x00000000       0x58 i:/mcu/gnu_tools_for_arm/11.3_rel1/bin/../lib/gcc/arm-none-eabi/11.3.1/thumb/v7e-m+fp/hard\libc.a(libc_a-wcrtomb.o)
 .text.wcsrtombs
                0x00000000       0x24 i:/mcu/gnu_tools_for_arm/11.3_rel1/bin/../lib/gcc/arm-none-eabi/11.3.1/thumb/v7e-m+fp/hard\libc.a(libc_a-wcsrtombs.o)
 .text.__set_ctype
                0x00000000        0xc i:/mcu/gnu_tools_for_arm/11.3_rel1/bin/../lib/gcc/arm-none-eabi/11.3.1/thumb/v7e-m+fp/hard\libc.a(libc_a-ctype_.o)
 .rodata._svfiprintf_r.str1.4
                0x00000000       0x2f i:/mcu/gnu_tools_for_arm/11.3_rel1/bin/../lib/gcc/arm-none-eabi/11.3.1/thumb/v7e-m+fp/hard\libc.a(libc_a-svfiprintf.o)
 .text._svfiprintf_r
                0x00000000      0xd18 i:/mcu/gnu_tools_for_arm/11.3_rel1/bin/../lib/gcc/arm-none-eabi/11.3.1/thumb/v7e-m+fp/hard\libc.a(libc_a-svfiprintf.o)
 .rodata.blanks.1
                0x00000000       0x10 i:/mcu/gnu_tools_for_arm/11.3_rel1/bin/../lib/gcc/arm-none-eabi/11.3.1/thumb/v7e-m+fp/hard\libc.a(libc_a-svfiprintf.o)
 .rodata.zeroes.0
                0x00000000       0x10 i:/mcu/gnu_tools_for_arm/11.3_rel1/bin/../lib/gcc/arm-none-eabi/11.3.1/thumb/v7e-m+fp/hard\libc.a(libc_a-svfiprintf.o)
 .text.strcasecmp
                0x00000000       0x54 i:/mcu/gnu_tools_for_arm/11.3_rel1/bin/../lib/gcc/arm-none-eabi/11.3.1/thumb/v7e-m+fp/hard\libc.a(libc_a-strcasecmp.o)
 .text.strcat   0x00000000       0x40 i:/mcu/gnu_tools_for_arm/11.3_rel1/bin/../lib/gcc/arm-none-eabi/11.3.1/thumb/v7e-m+fp/hard\libc.a(libc_a-strcat.o)
 .text.strchr   0x00000000       0xcc i:/mcu/gnu_tools_for_arm/11.3_rel1/bin/../lib/gcc/arm-none-eabi/11.3.1/thumb/v7e-m+fp/hard\libc.a(libc_a-strchr.o)
 .text.strlcpy  0x00000000       0x44 i:/mcu/gnu_tools_for_arm/11.3_rel1/bin/../lib/gcc/arm-none-eabi/11.3.1/thumb/v7e-m+fp/hard\libc.a(libc_a-strlcpy.o)
 .text.strncasecmp
                0x00000000       0x5c i:/mcu/gnu_tools_for_arm/11.3_rel1/bin/../lib/gcc/arm-none-eabi/11.3.1/thumb/v7e-m+fp/hard\libc.a(libc_a-strncasecmp.o)
 .text.strncmp  0x00000000       0x8c i:/mcu/gnu_tools_for_arm/11.3_rel1/bin/../lib/gcc/arm-none-eabi/11.3.1/thumb/v7e-m+fp/hard\libc.a(libc_a-strncmp.o)
 .text.__assert
                0x00000000        0xc i:/mcu/gnu_tools_for_arm/11.3_rel1/bin/../lib/gcc/arm-none-eabi/11.3.1/thumb/v7e-m+fp/hard\libc.a(libc_a-assert.o)
 .text.__env_lock
                0x00000000        0xc i:/mcu/gnu_tools_for_arm/11.3_rel1/bin/../lib/gcc/arm-none-eabi/11.3.1/thumb/v7e-m+fp/hard\libc.a(libc_a-envlock.o)
 .text.__env_unlock
                0x00000000        0xc i:/mcu/gnu_tools_for_arm/11.3_rel1/bin/../lib/gcc/arm-none-eabi/11.3.1/thumb/v7e-m+fp/hard\libc.a(libc_a-envlock.o)
 .text.wcsnrtombs
                0x00000000       0x2c i:/mcu/gnu_tools_for_arm/11.3_rel1/bin/../lib/gcc/arm-none-eabi/11.3.1/thumb/v7e-m+fp/hard\libc.a(libc_a-wcsnrtombs.o)
 .text._fiprintf_r
                0x00000000       0x1c i:/mcu/gnu_tools_for_arm/11.3_rel1/bin/../lib/gcc/arm-none-eabi/11.3.1/thumb/v7e-m+fp/hard\libc.a(libc_a-fiprintf.o)
 .text.__sprint_r
                0x00000000       0x18 i:/mcu/gnu_tools_for_arm/11.3_rel1/bin/../lib/gcc/arm-none-eabi/11.3.1/thumb/v7e-m+fp/hard\libc.a(libc_a-vfiprintf.o)
 .text.vfiprintf
                0x00000000       0x1c i:/mcu/gnu_tools_for_arm/11.3_rel1/bin/../lib/gcc/arm-none-eabi/11.3.1/thumb/v7e-m+fp/hard\libc.a(libc_a-vfiprintf.o)
 .text.fputwc   0x00000000       0x74 i:/mcu/gnu_tools_for_arm/11.3_rel1/bin/../lib/gcc/arm-none-eabi/11.3.1/thumb/v7e-m+fp/hard\libc.a(libc_a-fputwc.o)
 .text.__swhatbuf_r
                0x00000000       0x60 i:/mcu/gnu_tools_for_arm/11.3_rel1/bin/../lib/gcc/arm-none-eabi/11.3.1/thumb/v7e-m+fp/hard\libc.a(libc_a-makebuf.o)
 .text.__swbuf  0x00000000       0x18 i:/mcu/gnu_tools_for_arm/11.3_rel1/bin/../lib/gcc/arm-none-eabi/11.3.1/thumb/v7e-m+fp/hard\libc.a(libc_a-wbuf.o)
 .text._init_signal_r
                0x00000000       0x30 i:/mcu/gnu_tools_for_arm/11.3_rel1/bin/../lib/gcc/arm-none-eabi/11.3.1/thumb/v7e-m+fp/hard\libc.a(libc_a-signal.o)
 .text._signal_r
                0x00000000       0x4c i:/mcu/gnu_tools_for_arm/11.3_rel1/bin/../lib/gcc/arm-none-eabi/11.3.1/thumb/v7e-m+fp/hard\libc.a(libc_a-signal.o)
 .text._raise_r
                0x00000000       0x58 i:/mcu/gnu_tools_for_arm/11.3_rel1/bin/../lib/gcc/arm-none-eabi/11.3.1/thumb/v7e-m+fp/hard\libc.a(libc_a-signal.o)
 .text.__sigtramp_r
                0x00000000       0x64 i:/mcu/gnu_tools_for_arm/11.3_rel1/bin/../lib/gcc/arm-none-eabi/11.3.1/thumb/v7e-m+fp/hard\libc.a(libc_a-signal.o)
 .text.signal   0x00000000       0x54 i:/mcu/gnu_tools_for_arm/11.3_rel1/bin/../lib/gcc/arm-none-eabi/11.3.1/thumb/v7e-m+fp/hard\libc.a(libc_a-signal.o)
 .text._init_signal
                0x00000000       0x38 i:/mcu/gnu_tools_for_arm/11.3_rel1/bin/../lib/gcc/arm-none-eabi/11.3.1/thumb/v7e-m+fp/hard\libc.a(libc_a-signal.o)
 .text.__sigtramp
                0x00000000       0x68 i:/mcu/gnu_tools_for_arm/11.3_rel1/bin/../lib/gcc/arm-none-eabi/11.3.1/thumb/v7e-m+fp/hard\libc.a(libc_a-signal.o)
 .rodata.all_implied_fbits
                0x00000000       0x24 i:/mcu/gnu_tools_for_arm/11.3_rel1/bin/../lib/gcc/arm-none-eabi/11.3.1/thumb/v7e-m+fp/hard/crtend.o
 .eh_frame      0x00000000        0x4 i:/mcu/gnu_tools_for_arm/11.3_rel1/bin/../lib/gcc/arm-none-eabi/11.3.1/thumb/v7e-m+fp/hard/crtend.o

Memory Configuration

Name             Origin             Length             Attributes
MAIN_FLASH       0x00000000         0x00040000         xr
INFO_FLASH       0x00200000         0x00004000         xr
SRAM_CODE        0x01000000         0x00010000         xrw
SRAM_DATA        0x20000000         0x00010000         rw
*default*        0x00000000         0xffffffff

Linker script and memory map

LOAD i:/mcu/gnu_tools_for_arm/11.3_rel1/bin/../lib/gcc/arm-none-eabi/11.3.1/thumb/v7e-m+fp/hard/crti.o
LOAD i:/mcu/gnu_tools_for_arm/11.3_rel1/bin/../lib/gcc/arm-none-eabi/11.3.1/thumb/v7e-m+fp/hard/crtbegin.o
LOAD i:/mcu/gnu_tools_for_arm/11.3_rel1/bin/../lib/gcc/arm-none-eabi/11.3.1/thumb/v7e-m+fp/hard/crt0.o
LOAD build/main.o
LOAD build/cpu.o
LOAD build/cs.o
LOAD build/flash.o
LOAD build/fpu.o
LOAD build/gpio.o
LOAD build/interrupt.o
LOAD build/mpu.o
LOAD build/pcm.o
LOAD build/pss.o
LOAD build/ref_a.o
LOAD build/reset.o
LOAD build/rtc_c.o
LOAD build/sysctl.o
LOAD build/systick.o
LOAD build/uart.o
LOAD build/wdt_a.o
LOAD build/startup_msp432p401r_gcc.o
LOAD build/system_msp432p401r.o
LOAD build/user_periph.o
LOAD build/syscalls.o
LOAD build/user_uart.o
LOAD build/user_dma.o
LOAD build/iic_bus.o
LOAD i:/mcu/gnu_tools_for_arm/11.3_rel1/bin/../lib/gcc/arm-none-eabi/11.3.1/thumb/v7e-m+fp/hard\libc.a
LOAD i:/mcu/gnu_tools_for_arm/11.3_rel1/bin/../lib/gcc/arm-none-eabi/11.3.1/thumb/v7e-m+fp/hard\libm.a
LOAD i:/mcu/gnu_tools_for_arm/11.3_rel1/bin/../lib/gcc/arm-none-eabi/11.3.1/thumb/v7e-m+fp/hard\libnosys.a
START GROUP
LOAD i:/mcu/gnu_tools_for_arm/11.3_rel1/bin/../lib/gcc/arm-none-eabi/11.3.1/thumb/v7e-m+fp/hard\libgcc.a
LOAD i:/mcu/gnu_tools_for_arm/11.3_rel1/bin/../lib/gcc/arm-none-eabi/11.3.1/thumb/v7e-m+fp/hard\libc.a
END GROUP
START GROUP
LOAD i:/mcu/gnu_tools_for_arm/11.3_rel1/bin/../lib/gcc/arm-none-eabi/11.3.1/thumb/v7e-m+fp/hard\libgcc.a
LOAD i:/mcu/gnu_tools_for_arm/11.3_rel1/bin/../lib/gcc/arm-none-eabi/11.3.1/thumb/v7e-m+fp/hard\libc.a
LOAD i:/mcu/gnu_tools_for_arm/11.3_rel1/bin/../lib/gcc/arm-none-eabi/11.3.1/thumb/v7e-m+fp/hard\libnosys.a
END GROUP
LOAD i:/mcu/gnu_tools_for_arm/11.3_rel1/bin/../lib/gcc/arm-none-eabi/11.3.1/thumb/v7e-m+fp/hard/crtend.o
LOAD i:/mcu/gnu_tools_for_arm/11.3_rel1/bin/../lib/gcc/arm-none-eabi/11.3.1/thumb/v7e-m+fp/hard/crtn.o
                0x00000000                PROVIDE (_intvecs_base_address = DEFINED (_intvecs_base_address)?_intvecs_base_address:0x0)

.intvecs        0x00000000       0xe4
 *(.intvecs)
 .intvecs       0x00000000       0xe4 build/startup_msp432p401r_gcc.o
                0x00000000                interruptVectors
                0x00200000                PROVIDE (_mailbox_base_address = 0x200000)

.flashMailbox
 *(.flashMailbox)
                0x00201000                PROVIDE (_tlv_base_address = 0x201000)

.tlvTable
 *(.tlvTable)
                0x00202000                PROVIDE (_bsl_base_address = 0x202000)

.bslArea
 *(.bslArea)
                0x20000000                PROVIDE (_vtable_base_address = DEFINED (_vtable_base_address)?_vtable_base_address:0x20000000)

.vtable
 *(.vtable)

.text           0x00000100     0xede0
 CREATE_OBJECT_SYMBOLS
 *(.text)
 .text          0x00000100        0x0 i:/mcu/gnu_tools_for_arm/11.3_rel1/bin/../lib/gcc/arm-none-eabi/11.3.1/thumb/v7e-m+fp/hard/crti.o
 .text          0x00000100        0x0 i:/mcu/gnu_tools_for_arm/11.3_rel1/bin/../lib/gcc/arm-none-eabi/11.3.1/thumb/v7e-m+fp/hard/crtbegin.o
 .text          0x00000100       0x7c i:/mcu/gnu_tools_for_arm/11.3_rel1/bin/../lib/gcc/arm-none-eabi/11.3.1/thumb/v7e-m+fp/hard/crt0.o
                0x00000100                _stack_init
                0x00000108                _start
                0x00000108                _mainCRTStartup
 .text          0x0000017c      0x164 build/main.o
                0x0000017c                my_delay
                0x000001b0                main
                0x000001f8                Clock_Configuration
                0x0000026c                Clock_Information
 .text          0x000002e0       0x42 build/cpu.o
                0x000002e0                CPU_cpsid
                0x000002ee                CPU_primask
                0x000002fa                CPU_cpsie
                0x00000308                CPU_wfi
                0x0000030e                CPU_basepriSet
                0x00000316                CPU_basepriGet
 *fill*         0x00000322        0x2 
 .text          0x00000324      0xf84 build/cs.o
                0x0000067c                CS_setExternalClockSourceFrequency
                0x000006a8                CS_initClockSignal
                0x00000834                CS_startHFXT
                0x00000852                CS_startHFXTWithTimeout
                0x00000944                CS_startLFXT
                0x0000095e                CS_startLFXTWithTimeout
                0x00000a48                CS_enableClockRequest
                0x00000a80                CS_disableClockRequest
                0x00000ab8                CS_setReferenceOscillatorFrequency
                0x00000af0                CS_enableDCOExternalResistor
                0x00000b20                CS_setDCOExternalResistorCalibration
                0x00000bb4                CS_disableDCOExternalResistor
                0x00000be4                CS_setDCOCenteredFrequency
                0x00000c20                CS_tuneDCOFrequency
                0x00000ca4                CS_getDCOFrequency
                0x00000dbc                CS_setDCOFrequency
                0x00000f70                CS_getBCLK
                0x00000f9c                CS_getHSMCLK
                0x00000fd0                CS_getACLK
                0x00001004                CS_getSMCLK
                0x00001038                CS_getMCLK
                0x0000106c                CS_enableFaultCounter
                0x000010b4                CS_disableFaultCounter
                0x000010fc                CS_resetFaultCounter
                0x00001144                CS_startFaultCounter
                0x0000119c                CS_enableInterrupt
                0x000011d4                CS_disableInterrupt
                0x0000120c                CS_getInterruptStatus
                0x00001224                CS_getEnabledInterruptStatus
                0x0000123c                CS_clearInterruptFlag
                0x00001274                CS_registerInterrupt
                0x00001292                CS_unregisterInterrupt
 .text          0x000012a8     0x1af0 build/flash.o
                0x000015c6                FlashCtl_getMemoryInfo
                0x000019ac                FlashCtl_enableReadBuffering
                0x00001a24                FlashCtl_disableReadBuffering
                0x00001a9c                FlashCtl_unprotectSector
                0x00001b40                FlashCtl_protectSector
                0x00001bc8                FlashCtl_isSectorProtected
                0x00001c5c                FlashCtl_verifyMemory
                0x00001f04                FlashCtl_setReadMode
                0x00001f88                FlashCtl_getReadMode
                0x00001fc8                FlashCtl_initiateMassErase
                0x00001ff4                FlashCtl_performMassErase
                0x000021cc                FlashCtl_eraseSector
                0x00002320                FlashCtl_initiateSectorErase
                0x000023c0                FlashCtl_programMemory
                0x00002568                FlashCtl_setProgramVerification
                0x000025cc                FlashCtl_clearProgramVerification
                0x00002630                FlashCtl_enableWordProgramming
                0x00002674                FlashCtl_disableWordProgramming
                0x0000268c                FlashCtl_isWordProgrammingEnabled
                0x000026c0                FlashCtl_setWaitState
                0x0000270c                FlashCtl_getWaitState
                0x0000274c                FlashCtl_enableInterrupt
                0x00002774                FlashCtl_disableInterrupt
                0x000027a0                FlashCtl_getInterruptStatus
                0x000027b8                FlashCtl_getEnabledInterruptStatus
                0x000027d4                FlashCtl_clearInterruptFlag
                0x000027fc                FlashCtl_registerInterrupt
                0x0000281a                FlashCtl_unregisterInterrupt
                0x0000282e                __FlashCtl_remaskData8Post
                0x000028c0                __FlashCtl_remaskData8Pre
                0x00002958                __FlashCtl_remaskData32Post
                0x00002a38                __FlashCtl_remaskData32Pre
                0x00002b1c                __FlashCtl_remaskBurstDataPre
                0x00002c60                __FlashCtl_remaskBurstDataPost
 .text          0x00002d98      0x14c build/fpu.o
                0x00002d98                FPU_enableModule
                0x00002dbc                FPU_disableModule
                0x00002de0                FPU_enableStacking
                0x00002e04                FPU_enableLazyStacking
                0x00002e24                FPU_disableStacking
                0x00002e44                FPU_setHalfPrecisionMode
                0x00002e6c                FPU_setNaNMode
                0x00002e94                FPU_setFlushToZeroMode
                0x00002ebc                FPU_setRoundingMode
 .text          0x00002ee4      0x7e4 build/gpio.o
                0x00002ee4                GPIO_setAsOutputPin
                0x00002f54                GPIO_setAsInputPin
                0x00002fe0                GPIO_setAsPeripheralModuleFunctionOutputPin
                0x000030c8                GPIO_setAsPeripheralModuleFunctionInputPin
                0x000031b4                GPIO_setOutputHighOnPin
                0x000031f0                GPIO_setOutputLowOnPin
                0x00003230                GPIO_toggleOutputOnPin
                0x0000326c                GPIO_setAsInputPinWithPullDownResistor
                0x00003310                GPIO_setAsInputPinWithPullUpResistor
                0x000033b0                GPIO_getInputPinValue
                0x000033f0                GPIO_enableInterrupt
                0x0000342c                GPIO_disableInterrupt
                0x0000346c                GPIO_getInterruptStatus
                0x000034a0                GPIO_clearInterruptFlag
                0x000034e0                GPIO_interruptEdgeSelect
                0x00003540                GPIO_getEnabledInterruptStatus
                0x000035f0                GPIO_setDriveStrengthHigh
                0x0000362c                GPIO_setDriveStrengthLow
                0x0000366c                GPIO_registerInterrupt
                0x0000369c                GPIO_unregisterInterrupt
 .text          0x000036c8      0x548 build/interrupt.o
                0x000036ce                Interrupt_enableMaster
                0x000036e6                Interrupt_disableMaster
                0x000036fe                Interrupt_registerInterrupt
                0x00003764                Interrupt_unregisterInterrupt
                0x0000378c                Interrupt_setPriorityGrouping
                0x000037dc                Interrupt_getPriorityGrouping
                0x00003828                Interrupt_setPriority
                0x00003890                Interrupt_getPriority
                0x000038c4                Interrupt_enableInterrupt
                0x00003958                Interrupt_disableInterrupt
                0x000039ec                Interrupt_isEnabled
                0x00003a8c                Interrupt_pendInterrupt
                0x00003b08                Interrupt_unpendInterrupt
                0x00003b70                Interrupt_setPriorityMask
                0x00003b8a                Interrupt_getPriorityMask
                0x00003b9a                Interrupt_setVectorTableAddress
                0x00003bb8                Interrupt_getVectorTableAddress
                0x00003bd0                Interrupt_enableSleepOnIsrExit
                0x00003bf0                Interrupt_disableSleepOnIsrExit
 .text          0x00003c10      0x16c build/mpu.o
                0x00003c10                MPU_enableModule
                0x00003c34                MPU_disableModule
                0x00003c54                MPU_getRegionCount
                0x00003c70                MPU_enableRegion
                0x00003c9c                MPU_disableRegion
                0x00003cc8                MPU_setRegion
                0x00003d00                MPU_getRegion
                0x00003d38                MPU_registerInterrupt
                0x00003d50                MPU_unregisterInterrupt
                0x00003d5e                MPU_enableInterrupt
                0x00003d6c                MPU_disableInterrupt
 .text          0x00003d7c      0xb08 build/pcm.o
                0x00003e9c                PCM_setCoreVoltageLevel
                0x00003eb8                PCM_setCoreVoltageLevelWithTimeout
                0x00003ed6                PCM_setCoreVoltageLevelNonBlocking
                0x00003ef2                PCM_getPowerMode
                0x00003f62                PCM_getCoreVoltageLevel
                0x00004154                PCM_setPowerMode
                0x00004170                PCM_setPowerModeNonBlocking
                0x0000418c                PCM_setPowerModeWithTimeout
                0x00004538                PCM_setPowerState
                0x00004554                PCM_setPowerStateWithTimeout
                0x00004572                PCM_setPowerStateNonBlocking
                0x0000458e                PCM_shutdownDevice
                0x000045f4                PCM_gotoLPM4
                0x0000460a                PCM_gotoLPM4InterruptSafe
                0x0000462e                PCM_gotoLPM0
                0x00004660                PCM_gotoLPM0InterruptSafe
                0x00004684                PCM_gotoLPM3
                0x00004720                PCM_gotoLPM3InterruptSafe
                0x00004744                PCM_getPowerState
                0x00004764                PCM_enableRudeMode
                0x00004788                PCM_disableRudeMode
                0x000047b0                PCM_enableInterrupt
                0x000047d4                PCM_disableInterrupt
                0x000047fc                PCM_getInterruptStatus
                0x00004814                PCM_getEnabledInterruptStatus
                0x0000482c                PCM_clearInterruptFlag
                0x00004850                PCM_registerInterrupt
                0x0000486e                PCM_unregisterInterrupt
 .text          0x00004884      0x28c build/pss.o
                0x000048b8                PSS_enableForcedDCDCOperation
                0x000048d4                PSS_disableForcedDCDCOperation
                0x000048f0                PSS_enableHighSidePinToggle
                0x00004938                PSS_disableHighSidePinToggle
                0x00004954                PSS_enableHighSide
                0x00004970                PSS_disableHighSide
                0x0000498c                PSS_setHighSidePerformanceMode
                0x000049bc                PSS_getHighSidePerformanceMode
                0x000049e0                PSS_enableHighSideMonitor
                0x000049fc                PSS_disableHighSideMonitor
                0x00004a18                PSS_setHighSideVoltageTrigger
                0x00004a54                PSS_getHighSideVoltageTrigger
                0x00004a70                PSS_enableInterrupt
                0x00004a8c                PSS_disableInterrupt
                0x00004aa8                PSS_getInterruptStatus
                0x00004ac0                PSS_clearInterruptFlag
                0x00004adc                PSS_registerInterrupt
                0x00004afa                PSS_unregisterInterrupt
 .text          0x00004b10      0x1c0 build/ref_a.o
                0x00004b10                REF_A_setReferenceVoltage
                0x00004b40                REF_A_disableTempSensor
                0x00004b58                REF_A_enableTempSensor
                0x00004b70                REF_A_enableReferenceVoltageOutput
                0x00004b88                REF_A_disableReferenceVoltageOutput
                0x00004ba0                REF_A_enableReferenceVoltage
                0x00004bb8                REF_A_disableReferenceVoltage
                0x00004bd0                REF_A_getBandgapMode
                0x00004bec                REF_A_isBandgapActive
                0x00004c10                REF_A_isRefGenBusy
                0x00004c34                REF_A_isRefGenActive
                0x00004c58                REF_A_getBufferedBandgapVoltageStatus
                0x00004c7c                REF_A_getVariableReferenceVoltageStatus
                0x00004ca0                REF_A_setReferenceVoltageOneTimeTrigger
                0x00004cb8                REF_A_setBufferedBandgapVoltageOneTimeTrigger
 .text          0x00004cd0      0x180 build/reset.o
                0x00004cd0                ResetCtl_initiateSoftReset
                0x00004cf4                ResetCtl_initiateSoftResetWithSource
                0x00004d18                ResetCtl_getSoftResetSource
                0x00004d30                ResetCtl_clearSoftResetSource
                0x00004d54                ResetCtl_initiateHardReset
                0x00004d78                ResetCtl_initiateHardResetWithSource
                0x00004d9c                ResetCtl_getHardResetSource
                0x00004db4                ResetCtl_clearHardResetSource
                0x00004dd8                ResetCtl_getPSSSource
                0x00004df0                ResetCtl_clearPSSFlags
                0x00004e14                ResetCtl_getPCMSource
                0x00004e2c                ResetCtl_clearPCMFlags
 .text          0x00004e50      0x7d0 build/rtc_c.o
                0x00004e50                RTC_C_startClock
                0x00004e94                RTC_C_holdClock
                0x00004ed8                RTC_C_setCalibrationFrequency
                0x00004f30                RTC_C_setCalibrationData
                0x00004f80                RTC_C_setTemperatureCompensation
                0x00004fd0                RTC_C_initCalendar
                0x00005084                RTC_C_getCalendarTime
                0x00005114                RTC_C_setCalendarAlarm
                0x00005178                RTC_C_setCalendarEvent
                0x000051d0                RTC_C_definePrescaleEvent
                0x00005240                RTC_C_getPrescaleValue
                0x0000527c                RTC_C_setPrescaleValue
                0x000052fc                RTC_C_convertBCDToBinary
                0x00005324                RTC_C_convertBinaryToBCD
                0x0000534c                RTC_C_enableInterrupt
                0x000053cc                RTC_C_disableInterrupt
                0x00005458                RTC_C_getInterruptStatus
                0x000054d4                RTC_C_getEnabledInterruptStatus
                0x00005570                RTC_C_clearInterruptFlag
                0x000055ec                RTC_C_registerInterrupt
                0x0000560a                RTC_C_unregisterInterrupt
 .text          0x00005620      0x40c build/sysctl.o
                0x00005620                SysCtl_getTLVInfo
                0x000056b4                SysCtl_getSRAMSize
                0x000056cc                SysCtl_getFlashSize
                0x000056e4                SysCtl_disableNMISource
                0x0000570c                SysCtl_enableNMISource
                0x00005730                SysCtl_getNMISourceStatus
                0x0000574c                SysCtl_enableSRAMBank
                0x0000577c                SysCtl_disableSRAMBank
                0x00005884                SysCtl_enableSRAMBankRetention
                0x000058b8                SysCtl_disableSRAMBankRetention
                0x000058ec                SysCtl_rebootDevice
                0x00005908                SysCtl_enablePeripheralAtCPUHalt
                0x00005930                SysCtl_disablePeripheralAtCPUHalt
                0x00005954                SysCtl_setWDTTimeoutResetType
                0x0000598c                SysCtl_setWDTPasswordViolationResetType
                0x000059c4                SysCtl_enableGlitchFilter
                0x000059e4                SysCtl_disableGlitchFilter
                0x00005a04                SysCtl_getTempCalibrationConstant
 .text          0x00005a2c       0xf4 build/systick.o
                0x00005a2c                SysTick_enableModule
                0x00005a4c                SysTick_disableModule
                0x00005a6c                SysTick_registerInterrupt
                0x00005a84                SysTick_unregisterInterrupt
                0x00005a92                SysTick_enableInterrupt
                0x00005ab0                SysTick_disableInterrupt
                0x00005ad0                SysTick_setPeriod
                0x00005af0                SysTick_getPeriod
                0x00005b08                SysTick_getValue
 .text          0x00005b20      0x67c build/uart.o
                0x00005b20                UART_initModule
                0x00005cb4                UART_transmitData
                0x00005d04                UART_receiveData
                0x00005d4e                UART_enableModule
                0x00005d72                UART_disableModule
                0x00005d96                UART_queryStatusFlags
                0x00005db8                UART_setDormant
                0x00005dde                UART_resetDormant
                0x00005e04                UART_transmitAddress
                0x00005e34                UART_transmitBreak
                0x00005eaa                UART_getReceiveBufferAddressForDMA
                0x00005ec2                UART_getTransmitBufferAddressForDMA
                0x00005eda                UART_selectDeglitchTime
                0x00005f08                UART_enableInterrupt
                0x00005f52                UART_disableInterrupt
                0x00005fa4                UART_getInterruptStatus
                0x00005fc8                UART_getEnabledInterruptStatus
                0x0000604e                UART_clearInterruptFlag
                0x0000607a                UART_registerInterrupt
                0x00006110                UART_unregisterInterrupt
 .text          0x0000619c      0x164 build/wdt_a.o
                0x0000619c                WDT_A_holdTimer
                0x000061d0                WDT_A_startTimer
                0x00006204                WDT_A_clearTimer
                0x00006238                WDT_A_initWatchdogTimer
                0x0000626c                WDT_A_initIntervalTimer
                0x000062a0                WDT_A_setPasswordViolationReset
                0x000062b6                WDT_A_setTimeoutReset
                0x000062cc                WDT_A_registerInterrupt
                0x000062ea                WDT_A_unregisterInterrupt
 .text          0x00006300       0x4c build/startup_msp432p401r_gcc.o
                0x00006300                Reset_Handler
                0x00006344                DebugMon_Handler
                0x00006344                AES256_IRQHandler
                0x00006344                HardFault_Handler
                0x00006344                SysTick_Handler
                0x00006344                PendSV_Handler
                0x00006344                NMI_Handler
                0x00006344                RTC_C_IRQHandler
                0x00006344                PORT1_IRQHandler
                0x00006344                FPU_IRQHandler
                0x00006344                PORT2_IRQHandler
                0x00006344                TA3_0_IRQHandler
                0x00006344                UsageFault_Handler
                0x00006344                DMA_INT3_IRQHandler
                0x00006344                TA2_0_IRQHandler
                0x00006344                DMA_INT1_IRQHandler
                0x00006344                WDT_A_IRQHandler
                0x00006344                TA2_N_IRQHandler
                0x00006344                TA1_0_IRQHandler
                0x00006344                CS_IRQHandler
                0x00006344                PSS_IRQHandler
                0x00006344                DMA_INT2_IRQHandler
                0x00006344                EUSCIA3_IRQHandler
                0x00006344                DMA_INT0_IRQHandler
                0x00006344                PORT4_IRQHandler
                0x00006344                PORT5_IRQHandler
                0x00006344                EUSCIB0_IRQHandler
                0x00006344                Default_Handler
                0x00006344                T32_INTC_IRQHandler
                0x00006344                TA3_N_IRQHandler
                0x00006344                TA0_0_IRQHandler
                0x00006344                EUSCIA2_IRQHandler
                0x00006344                PORT6_IRQHandler
                0x00006344                PORT3_IRQHandler
                0x00006344                MemManage_Handler
                0x00006344                SVC_Handler
                0x00006344                TA1_N_IRQHandler
                0x00006344                EUSCIA1_IRQHandler
                0x00006344                COMP_E1_IRQHandler
                0x00006344                EUSCIB2_IRQHandler
                0x00006344                FLCTL_IRQHandler
                0x00006344                EUSCIB3_IRQHandler
                0x00006344                T32_INT1_IRQHandler
                0x00006344                DMA_ERR_IRQHandler
                0x00006344                ADC14_IRQHandler
                0x00006344                EUSCIA0_IRQHandler
                0x00006344                BusFault_Handler
                0x00006344                PCM_IRQHandler
                0x00006344                TA0_N_IRQHandler
                0x00006344                COMP_E0_IRQHandler
                0x00006344                EUSCIB1_IRQHandler
                0x00006344                T32_INT2_IRQHandler
 .text          0x0000634c      0x394 build/system_msp432p401r.o
                0x0000634c                SystemCoreClockUpdate
                0x00006660                SystemInit
 .text          0x000066e0       0xac build/user_periph.o
                0x00006718                Peripheral_PreInit
 .text          0x0000678c      0x214 build/syscalls.o
                0x0000678c                initialise_monitor_handles
                0x0000679a                _getpid
                0x000067aa                _kill
                0x000067ca                _exit
                0x000067de                _read
                0x00006818                _write
                0x00006850                _close
                0x00006868                _fstat
                0x00006888                _isatty
                0x0000689e                _lseek
                0x000068b8                _open
                0x000068d4                _wait
                0x000068f2                _unlink
                0x00006910                _times
                0x00006928                _stat
                0x00006948                _link
                0x00006968                _fork
                0x0000697e                _execve
 .text          0x000069a0      0x51c build/user_uart.o
                0x00006a3c                Send_Nchar
                0x00006a90                D_Send_Nchar
                0x00006af4                D_Send_String
                0x00006b24                Send_String
                0x00006b6c                Printf
                0x00006d08                Receive
                0x00006d1e                D_Printf
 .text          0x00006ebc      0x264 build/user_dma.o
                0x00006f24                DMA_Config_Source
                0x00006f98                DMA_Specify_Src
                0x00006fec                DMA_Specify_Ctrl
                0x00007044                DMA_Enable_Channel
                0x000070b0                DMA_Disable_Channel
 .text          0x00007120      0x650 build/iic_bus.o
                0x0000720c                IIC_Adapter_Start
                0x00007298                IIC_Adapter_Stop
                0x00007338                IIC_Adapter_SendByte
                0x00007478                IIC_Adapter_ReceiveByte
                0x00007654                IIC_Adapter_Write
                0x000076e2                IIC_Adapter_Read
 .text          0x00007770        0x0 i:/mcu/gnu_tools_for_arm/11.3_rel1/bin/../lib/gcc/arm-none-eabi/11.3.1/thumb/v7e-m+fp/hard\libc.a(libc_a-exit.o)
 .text          0x00007770        0x0 i:/mcu/gnu_tools_for_arm/11.3_rel1/bin/../lib/gcc/arm-none-eabi/11.3.1/thumb/v7e-m+fp/hard\libc.a(libc_a-findfp.o)
 .text          0x00007770        0x0 i:/mcu/gnu_tools_for_arm/11.3_rel1/bin/../lib/gcc/arm-none-eabi/11.3.1/thumb/v7e-m+fp/hard\libc.a(libc_a-fwalk.o)
 .text          0x00007770        0x0 i:/mcu/gnu_tools_for_arm/11.3_rel1/bin/../lib/gcc/arm-none-eabi/11.3.1/thumb/v7e-m+fp/hard\libc.a(libc_a-sprintf.o)
 .text          0x00007770        0x0 i:/mcu/gnu_tools_for_arm/11.3_rel1/bin/../lib/gcc/arm-none-eabi/11.3.1/thumb/v7e-m+fp/hard\libc.a(libc_a-stdio.o)
 .text          0x00007770        0x0 i:/mcu/gnu_tools_for_arm/11.3_rel1/bin/../lib/gcc/arm-none-eabi/11.3.1/thumb/v7e-m+fp/hard\libc.a(libc_a-memset.o)
 .text          0x00007770        0x0 i:/mcu/gnu_tools_for_arm/11.3_rel1/bin/../lib/gcc/arm-none-eabi/11.3.1/thumb/v7e-m+fp/hard\libc.a(libc_a-closer.o)
 .text          0x00007770        0x0 i:/mcu/gnu_tools_for_arm/11.3_rel1/bin/../lib/gcc/arm-none-eabi/11.3.1/thumb/v7e-m+fp/hard\libc.a(libc_a-reent.o)
 .text          0x00007770        0x0 i:/mcu/gnu_tools_for_arm/11.3_rel1/bin/../lib/gcc/arm-none-eabi/11.3.1/thumb/v7e-m+fp/hard\libc.a(libc_a-impure.o)
 .text          0x00007770        0x0 i:/mcu/gnu_tools_for_arm/11.3_rel1/bin/../lib/gcc/arm-none-eabi/11.3.1/thumb/v7e-m+fp/hard\libc.a(libc_a-lseekr.o)
 .text          0x00007770        0x0 i:/mcu/gnu_tools_for_arm/11.3_rel1/bin/../lib/gcc/arm-none-eabi/11.3.1/thumb/v7e-m+fp/hard\libc.a(libc_a-readr.o)
 .text          0x00007770        0x0 i:/mcu/gnu_tools_for_arm/11.3_rel1/bin/../lib/gcc/arm-none-eabi/11.3.1/thumb/v7e-m+fp/hard\libc.a(libc_a-writer.o)
 .text          0x00007770        0x0 i:/mcu/gnu_tools_for_arm/11.3_rel1/bin/../lib/gcc/arm-none-eabi/11.3.1/thumb/v7e-m+fp/hard\libc.a(libc_a-errno.o)
 .text          0x00007770        0x0 i:/mcu/gnu_tools_for_arm/11.3_rel1/bin/../lib/gcc/arm-none-eabi/11.3.1/thumb/v7e-m+fp/hard\libc.a(libc_a-init.o)
 .text          0x00007770        0x0 i:/mcu/gnu_tools_for_arm/11.3_rel1/bin/../lib/gcc/arm-none-eabi/11.3.1/thumb/v7e-m+fp/hard\libc.a(libc_a-lock.o)
 .text          0x00007770        0x0 i:/mcu/gnu_tools_for_arm/11.3_rel1/bin/../lib/gcc/arm-none-eabi/11.3.1/thumb/v7e-m+fp/hard\libc.a(libc_a-__call_atexit.o)
 .text          0x00007770        0x0 i:/mcu/gnu_tools_for_arm/11.3_rel1/bin/../lib/gcc/arm-none-eabi/11.3.1/thumb/v7e-m+fp/hard\libc.a(libc_a-atexit.o)
 .text          0x00007770        0x0 i:/mcu/gnu_tools_for_arm/11.3_rel1/bin/../lib/gcc/arm-none-eabi/11.3.1/thumb/v7e-m+fp/hard\libc.a(libc_a-freer.o)
 .text          0x00007770        0x0 i:/mcu/gnu_tools_for_arm/11.3_rel1/bin/../lib/gcc/arm-none-eabi/11.3.1/thumb/v7e-m+fp/hard\libc.a(libc_a-mallocr.o)
 .text          0x00007770        0x0 i:/mcu/gnu_tools_for_arm/11.3_rel1/bin/../lib/gcc/arm-none-eabi/11.3.1/thumb/v7e-m+fp/hard\libc.a(libc_a-mlock.o)
 .text          0x00007770        0x0 i:/mcu/gnu_tools_for_arm/11.3_rel1/bin/../lib/gcc/arm-none-eabi/11.3.1/thumb/v7e-m+fp/hard\libc.a(libc_a-svfprintf.o)
 .text          0x00007770        0x0 i:/mcu/gnu_tools_for_arm/11.3_rel1/bin/../lib/gcc/arm-none-eabi/11.3.1/thumb/v7e-m+fp/hard\libc.a(libc_a-fclose.o)
 .text          0x00007770        0x0 i:/mcu/gnu_tools_for_arm/11.3_rel1/bin/../lib/gcc/arm-none-eabi/11.3.1/thumb/v7e-m+fp/hard\libc.a(libc_a-fflush.o)
 .text          0x00007770        0x0 i:/mcu/gnu_tools_for_arm/11.3_rel1/bin/../lib/gcc/arm-none-eabi/11.3.1/thumb/v7e-m+fp/hard\libc.a(libc_a-strncpy.o)
 .text          0x00007770        0x0 i:/mcu/gnu_tools_for_arm/11.3_rel1/bin/../lib/gcc/arm-none-eabi/11.3.1/thumb/v7e-m+fp/hard\libc.a(libc_a-locale.o)
 .text          0x00007770        0x0 i:/mcu/gnu_tools_for_arm/11.3_rel1/bin/../lib/gcc/arm-none-eabi/11.3.1/thumb/v7e-m+fp/hard\libc.a(libc_a-localeconv.o)
 .text          0x00007770        0x0 i:/mcu/gnu_tools_for_arm/11.3_rel1/bin/../lib/gcc/arm-none-eabi/11.3.1/thumb/v7e-m+fp/hard\libc.a(libc_a-sbrkr.o)
 .text          0x00007770        0x0 i:/mcu/gnu_tools_for_arm/11.3_rel1/bin/../lib/gcc/arm-none-eabi/11.3.1/thumb/v7e-m+fp/hard\libc.a(libc_a-fini.o)
 *fill*         0x00007770       0x10 
 .text          0x00007780      0x2dc i:/mcu/gnu_tools_for_arm/11.3_rel1/bin/../lib/gcc/arm-none-eabi/11.3.1/thumb/v7e-m+fp/hard\libc.a(libc_a-strcmp.o)
                0x00007788                strcmp
 .text          0x00007a5c        0x0 i:/mcu/gnu_tools_for_arm/11.3_rel1/bin/../lib/gcc/arm-none-eabi/11.3.1/thumb/v7e-m+fp/hard\libc.a(libc_a-strcpy.o)
 *fill*         0x00007a5c        0x4 
 .text          0x00007a60       0xa0 i:/mcu/gnu_tools_for_arm/11.3_rel1/bin/../lib/gcc/arm-none-eabi/11.3.1/thumb/v7e-m+fp/hard\libc.a(libc_a-memchr.o)
                0x00007a60                memchr
 .text          0x00007b00       0xdc i:/mcu/gnu_tools_for_arm/11.3_rel1/bin/../lib/gcc/arm-none-eabi/11.3.1/thumb/v7e-m+fp/hard\libc.a(libc_a-strlen.o)
                0x00007b00                strlen
 .text          0x00007bdc        0x0 i:/mcu/gnu_tools_for_arm/11.3_rel1/bin/../lib/gcc/arm-none-eabi/11.3.1/thumb/v7e-m+fp/hard\libc.a(libm_a-s_frexp.o)
 .text          0x00007bdc        0x0 i:/mcu/gnu_tools_for_arm/11.3_rel1/bin/../lib/gcc/arm-none-eabi/11.3.1/thumb/v7e-m+fp/hard\libc.a(libc_a-__atexit.o)
 .text          0x00007bdc        0x0 i:/mcu/gnu_tools_for_arm/11.3_rel1/bin/../lib/gcc/arm-none-eabi/11.3.1/thumb/v7e-m+fp/hard\libc.a(libc_a-dtoa.o)
 .text          0x00007bdc        0x0 i:/mcu/gnu_tools_for_arm/11.3_rel1/bin/../lib/gcc/arm-none-eabi/11.3.1/thumb/v7e-m+fp/hard\libc.a(libc_a-getenv_r.o)
 .text          0x00007bdc        0x0 i:/mcu/gnu_tools_for_arm/11.3_rel1/bin/../lib/gcc/arm-none-eabi/11.3.1/thumb/v7e-m+fp/hard\libc.a(libc_a-mbtowc_r.o)
 .text          0x00007bdc        0x0 i:/mcu/gnu_tools_for_arm/11.3_rel1/bin/../lib/gcc/arm-none-eabi/11.3.1/thumb/v7e-m+fp/hard\libc.a(libc_a-mprec.o)
 .text          0x00007bdc        0x0 i:/mcu/gnu_tools_for_arm/11.3_rel1/bin/../lib/gcc/arm-none-eabi/11.3.1/thumb/v7e-m+fp/hard\libc.a(libc_a-strtol.o)
 .text          0x00007bdc        0x0 i:/mcu/gnu_tools_for_arm/11.3_rel1/bin/../lib/gcc/arm-none-eabi/11.3.1/thumb/v7e-m+fp/hard\libc.a(libc_a-wctomb_r.o)
 .text          0x00007bdc        0x0 i:/mcu/gnu_tools_for_arm/11.3_rel1/bin/../lib/gcc/arm-none-eabi/11.3.1/thumb/v7e-m+fp/hard\libc.a(libc_a-wcrtomb.o)
 .text          0x00007bdc        0x0 i:/mcu/gnu_tools_for_arm/11.3_rel1/bin/../lib/gcc/arm-none-eabi/11.3.1/thumb/v7e-m+fp/hard\libc.a(libc_a-wcsrtombs.o)
 .text          0x00007bdc        0x0 i:/mcu/gnu_tools_for_arm/11.3_rel1/bin/../lib/gcc/arm-none-eabi/11.3.1/thumb/v7e-m+fp/hard\libc.a(libc_a-ctype_.o)
 .text          0x00007bdc        0x0 i:/mcu/gnu_tools_for_arm/11.3_rel1/bin/../lib/gcc/arm-none-eabi/11.3.1/thumb/v7e-m+fp/hard\libc.a(libc_a-svfiprintf.o)
 .text          0x00007bdc        0x0 i:/mcu/gnu_tools_for_arm/11.3_rel1/bin/../lib/gcc/arm-none-eabi/11.3.1/thumb/v7e-m+fp/hard\libc.a(libc_a-memmove.o)
 .text          0x00007bdc        0x0 i:/mcu/gnu_tools_for_arm/11.3_rel1/bin/../lib/gcc/arm-none-eabi/11.3.1/thumb/v7e-m+fp/hard\libc.a(libc_a-strcasecmp.o)
 .text          0x00007bdc        0x0 i:/mcu/gnu_tools_for_arm/11.3_rel1/bin/../lib/gcc/arm-none-eabi/11.3.1/thumb/v7e-m+fp/hard\libc.a(libc_a-strcat.o)
 .text          0x00007bdc        0x0 i:/mcu/gnu_tools_for_arm/11.3_rel1/bin/../lib/gcc/arm-none-eabi/11.3.1/thumb/v7e-m+fp/hard\libc.a(libc_a-strchr.o)
 .text          0x00007bdc        0x0 i:/mcu/gnu_tools_for_arm/11.3_rel1/bin/../lib/gcc/arm-none-eabi/11.3.1/thumb/v7e-m+fp/hard\libc.a(libc_a-strlcpy.o)
 .text          0x00007bdc        0x0 i:/mcu/gnu_tools_for_arm/11.3_rel1/bin/../lib/gcc/arm-none-eabi/11.3.1/thumb/v7e-m+fp/hard\libc.a(libc_a-strncasecmp.o)
 .text          0x00007bdc        0x0 i:/mcu/gnu_tools_for_arm/11.3_rel1/bin/../lib/gcc/arm-none-eabi/11.3.1/thumb/v7e-m+fp/hard\libc.a(libc_a-strncmp.o)
 .text          0x00007bdc      0x134 i:/mcu/gnu_tools_for_arm/11.3_rel1/bin/../lib/gcc/arm-none-eabi/11.3.1/thumb/v7e-m+fp/hard\libc.a(libc_a-memcpy.o)
                0x00007bdc                memcpy
 .text          0x00007d10        0x0 i:/mcu/gnu_tools_for_arm/11.3_rel1/bin/../lib/gcc/arm-none-eabi/11.3.1/thumb/v7e-m+fp/hard\libc.a(libc_a-assert.o)
 .text          0x00007d10        0x0 i:/mcu/gnu_tools_for_arm/11.3_rel1/bin/../lib/gcc/arm-none-eabi/11.3.1/thumb/v7e-m+fp/hard\libc.a(libc_a-callocr.o)
 .text          0x00007d10        0x0 i:/mcu/gnu_tools_for_arm/11.3_rel1/bin/../lib/gcc/arm-none-eabi/11.3.1/thumb/v7e-m+fp/hard\libc.a(libc_a-envlock.o)
 .text          0x00007d10        0x0 i:/mcu/gnu_tools_for_arm/11.3_rel1/bin/../lib/gcc/arm-none-eabi/11.3.1/thumb/v7e-m+fp/hard\libc.a(libc_a-reallocr.o)
 .text          0x00007d10        0x0 i:/mcu/gnu_tools_for_arm/11.3_rel1/bin/../lib/gcc/arm-none-eabi/11.3.1/thumb/v7e-m+fp/hard\libc.a(libc_a-wcsnrtombs.o)
 .text          0x00007d10        0x0 i:/mcu/gnu_tools_for_arm/11.3_rel1/bin/../lib/gcc/arm-none-eabi/11.3.1/thumb/v7e-m+fp/hard\libc.a(libc_a-fiprintf.o)
 .text          0x00007d10        0x0 i:/mcu/gnu_tools_for_arm/11.3_rel1/bin/../lib/gcc/arm-none-eabi/11.3.1/thumb/v7e-m+fp/hard\libc.a(libc_a-vfiprintf.o)
 .text          0x00007d10        0x0 i:/mcu/gnu_tools_for_arm/11.3_rel1/bin/../lib/gcc/arm-none-eabi/11.3.1/thumb/v7e-m+fp/hard\libc.a(libc_a-fvwrite.o)
 .text          0x00007d10        0x0 i:/mcu/gnu_tools_for_arm/11.3_rel1/bin/../lib/gcc/arm-none-eabi/11.3.1/thumb/v7e-m+fp/hard\libc.a(libc_a-wsetup.o)
 .text          0x00007d10        0x0 i:/mcu/gnu_tools_for_arm/11.3_rel1/bin/../lib/gcc/arm-none-eabi/11.3.1/thumb/v7e-m+fp/hard\libc.a(libc_a-fputwc.o)
 .text          0x00007d10        0x0 i:/mcu/gnu_tools_for_arm/11.3_rel1/bin/../lib/gcc/arm-none-eabi/11.3.1/thumb/v7e-m+fp/hard\libc.a(libc_a-abort.o)
 .text          0x00007d10        0x0 i:/mcu/gnu_tools_for_arm/11.3_rel1/bin/../lib/gcc/arm-none-eabi/11.3.1/thumb/v7e-m+fp/hard\libc.a(libc_a-makebuf.o)
 .text          0x00007d10        0x0 i:/mcu/gnu_tools_for_arm/11.3_rel1/bin/../lib/gcc/arm-none-eabi/11.3.1/thumb/v7e-m+fp/hard\libc.a(libc_a-wbuf.o)
 .text          0x00007d10        0x0 i:/mcu/gnu_tools_for_arm/11.3_rel1/bin/../lib/gcc/arm-none-eabi/11.3.1/thumb/v7e-m+fp/hard\libc.a(libc_a-signal.o)
 .text          0x00007d10        0x0 i:/mcu/gnu_tools_for_arm/11.3_rel1/bin/../lib/gcc/arm-none-eabi/11.3.1/thumb/v7e-m+fp/hard\libc.a(libc_a-fstatr.o)
 .text          0x00007d10        0x0 i:/mcu/gnu_tools_for_arm/11.3_rel1/bin/../lib/gcc/arm-none-eabi/11.3.1/thumb/v7e-m+fp/hard\libc.a(libc_a-isattyr.o)
 .text          0x00007d10        0x0 i:/mcu/gnu_tools_for_arm/11.3_rel1/bin/../lib/gcc/arm-none-eabi/11.3.1/thumb/v7e-m+fp/hard\libc.a(libc_a-signalr.o)
 .text          0x00007d10        0x0 i:/mcu/gnu_tools_for_arm/11.3_rel1/bin/../lib/gcc/arm-none-eabi/11.3.1/thumb/v7e-m+fp/hard\libnosys.a(sbrk.o)
 .text          0x00007d10      0x254 i:/mcu/gnu_tools_for_arm/11.3_rel1/bin/../lib/gcc/arm-none-eabi/11.3.1/thumb/v7e-m+fp/hard\libgcc.a(_arm_muldf3.o)
 .text          0x00007f64      0x378 i:/mcu/gnu_tools_for_arm/11.3_rel1/bin/../lib/gcc/arm-none-eabi/11.3.1/thumb/v7e-m+fp/hard\libgcc.a(_arm_addsubdf3.o)
                0x00007f64                __aeabi_drsub
                0x00007f6c                __aeabi_dsub
                0x00007f6c                __subdf3
                0x00007f70                __aeabi_dadd
                0x00007f70                __adddf3
                0x000081e8                __floatunsidf
                0x000081e8                __aeabi_ui2d
                0x00008208                __floatsidf
                0x00008208                __aeabi_i2d
                0x0000822c                __aeabi_f2d
                0x0000822c                __extendsfdf2
                0x00008270                __floatundidf
                0x00008270                __aeabi_ul2d
                0x00008280                __floatdidf
                0x00008280                __aeabi_l2d
 .text          0x000082dc      0x424 i:/mcu/gnu_tools_for_arm/11.3_rel1/bin/../lib/gcc/arm-none-eabi/11.3.1/thumb/v7e-m+fp/hard\libgcc.a(_arm_muldivdf3.o)
                0x000082dc                __aeabi_dmul
                0x000082dc                __muldf3
                0x00008530                __divdf3
                0x00008530                __aeabi_ddiv
 .text          0x00008700      0x110 i:/mcu/gnu_tools_for_arm/11.3_rel1/bin/../lib/gcc/arm-none-eabi/11.3.1/thumb/v7e-m+fp/hard\libgcc.a(_arm_cmpdf2.o)
                0x00008700                __gtdf2
                0x00008700                __gedf2
                0x00008708                __ltdf2
                0x00008708                __ledf2
                0x00008710                __nedf2
                0x00008710                __eqdf2
                0x00008710                __cmpdf2
                0x0000878c                __aeabi_cdrcmple
                0x0000879c                __aeabi_cdcmpeq
                0x0000879c                __aeabi_cdcmple
                0x000087ac                __aeabi_dcmpeq
                0x000087c0                __aeabi_dcmplt
                0x000087d4                __aeabi_dcmple
                0x000087e8                __aeabi_dcmpge
                0x000087fc                __aeabi_dcmpgt
 .text          0x00008810       0x2c i:/mcu/gnu_tools_for_arm/11.3_rel1/bin/../lib/gcc/arm-none-eabi/11.3.1/thumb/v7e-m+fp/hard\libgcc.a(_arm_unorddf2.o)
                0x00008810                __unorddf2
                0x00008810                __aeabi_dcmpun
 .text          0x0000883c       0x50 i:/mcu/gnu_tools_for_arm/11.3_rel1/bin/../lib/gcc/arm-none-eabi/11.3.1/thumb/v7e-m+fp/hard\libgcc.a(_arm_fixdfsi.o)
                0x0000883c                __aeabi_d2iz
                0x0000883c                __fixdfsi
 .text          0x0000888c        0x0 i:/mcu/gnu_tools_for_arm/11.3_rel1/bin/../lib/gcc/arm-none-eabi/11.3.1/thumb/v7e-m+fp/hard/crtend.o
 .text          0x0000888c        0x0 i:/mcu/gnu_tools_for_arm/11.3_rel1/bin/../lib/gcc/arm-none-eabi/11.3.1/thumb/v7e-m+fp/hard/crtn.o
 *(.text.*)
 .text.deregister_tm_clones
                0x0000888c       0x1c i:/mcu/gnu_tools_for_arm/11.3_rel1/bin/../lib/gcc/arm-none-eabi/11.3.1/thumb/v7e-m+fp/hard/crtbegin.o
 .text.register_tm_clones
                0x000088a8       0x24 i:/mcu/gnu_tools_for_arm/11.3_rel1/bin/../lib/gcc/arm-none-eabi/11.3.1/thumb/v7e-m+fp/hard/crtbegin.o
 .text.__do_global_dtors_aux
                0x000088cc       0x28 i:/mcu/gnu_tools_for_arm/11.3_rel1/bin/../lib/gcc/arm-none-eabi/11.3.1/thumb/v7e-m+fp/hard/crtbegin.o
 .text.frame_dummy
                0x000088f4       0x24 i:/mcu/gnu_tools_for_arm/11.3_rel1/bin/../lib/gcc/arm-none-eabi/11.3.1/thumb/v7e-m+fp/hard/crtbegin.o
 .text.exit     0x00008918       0x1c i:/mcu/gnu_tools_for_arm/11.3_rel1/bin/../lib/gcc/arm-none-eabi/11.3.1/thumb/v7e-m+fp/hard\libc.a(libc_a-exit.o)
                0x00008918                exit
 .text.stdio_exit_handler
                0x00008934       0x18 i:/mcu/gnu_tools_for_arm/11.3_rel1/bin/../lib/gcc/arm-none-eabi/11.3.1/thumb/v7e-m+fp/hard\libc.a(libc_a-findfp.o)
 .text.cleanup_stdio
                0x0000894c       0x40 i:/mcu/gnu_tools_for_arm/11.3_rel1/bin/../lib/gcc/arm-none-eabi/11.3.1/thumb/v7e-m+fp/hard\libc.a(libc_a-findfp.o)
 .text.global_stdio_init.part.0
                0x0000898c       0xd4 i:/mcu/gnu_tools_for_arm/11.3_rel1/bin/../lib/gcc/arm-none-eabi/11.3.1/thumb/v7e-m+fp/hard\libc.a(libc_a-findfp.o)
 .text.__sinit  0x00008a60       0x3c i:/mcu/gnu_tools_for_arm/11.3_rel1/bin/../lib/gcc/arm-none-eabi/11.3.1/thumb/v7e-m+fp/hard\libc.a(libc_a-findfp.o)
                0x00008a60                __sinit
 .text.__sfp_lock_acquire
                0x00008a9c        0xc i:/mcu/gnu_tools_for_arm/11.3_rel1/bin/../lib/gcc/arm-none-eabi/11.3.1/thumb/v7e-m+fp/hard\libc.a(libc_a-findfp.o)
                0x00008a9c                __sfp_lock_acquire
 .text.__sfp_lock_release
                0x00008aa8        0xc i:/mcu/gnu_tools_for_arm/11.3_rel1/bin/../lib/gcc/arm-none-eabi/11.3.1/thumb/v7e-m+fp/hard\libc.a(libc_a-findfp.o)
                0x00008aa8                __sfp_lock_release
 .text._fwalk_sglue
                0x00008ab4       0x48 i:/mcu/gnu_tools_for_arm/11.3_rel1/bin/../lib/gcc/arm-none-eabi/11.3.1/thumb/v7e-m+fp/hard\libc.a(libc_a-fwalk.o)
                0x00008ab4                _fwalk_sglue
 .text.sprintf  0x00008afc       0x40 i:/mcu/gnu_tools_for_arm/11.3_rel1/bin/../lib/gcc/arm-none-eabi/11.3.1/thumb/v7e-m+fp/hard\libc.a(libc_a-sprintf.o)
                0x00008afc                sprintf
 .text.__sread  0x00008b3c       0x24 i:/mcu/gnu_tools_for_arm/11.3_rel1/bin/../lib/gcc/arm-none-eabi/11.3.1/thumb/v7e-m+fp/hard\libc.a(libc_a-stdio.o)
                0x00008b3c                __sread
 .text.__swrite
                0x00008b60       0x40 i:/mcu/gnu_tools_for_arm/11.3_rel1/bin/../lib/gcc/arm-none-eabi/11.3.1/thumb/v7e-m+fp/hard\libc.a(libc_a-stdio.o)
                0x00008b60                __swrite
 .text.__sseek  0x00008ba0       0x20 i:/mcu/gnu_tools_for_arm/11.3_rel1/bin/../lib/gcc/arm-none-eabi/11.3.1/thumb/v7e-m+fp/hard\libc.a(libc_a-stdio.o)
                0x00008ba0                __sseek
 .text.__sclose
                0x00008bc0        0x8 i:/mcu/gnu_tools_for_arm/11.3_rel1/bin/../lib/gcc/arm-none-eabi/11.3.1/thumb/v7e-m+fp/hard\libc.a(libc_a-stdio.o)
                0x00008bc0                __sclose
 .text.memset   0x00008bc8       0xa4 i:/mcu/gnu_tools_for_arm/11.3_rel1/bin/../lib/gcc/arm-none-eabi/11.3.1/thumb/v7e-m+fp/hard\libc.a(libc_a-memset.o)
                0x00008bc8                memset
 .text._close_r
                0x00008c6c       0x24 i:/mcu/gnu_tools_for_arm/11.3_rel1/bin/../lib/gcc/arm-none-eabi/11.3.1/thumb/v7e-m+fp/hard\libc.a(libc_a-closer.o)
                0x00008c6c                _close_r
 .text._lseek_r
                0x00008c90       0x2c i:/mcu/gnu_tools_for_arm/11.3_rel1/bin/../lib/gcc/arm-none-eabi/11.3.1/thumb/v7e-m+fp/hard\libc.a(libc_a-lseekr.o)
                0x00008c90                _lseek_r
 .text._read_r  0x00008cbc       0x2c i:/mcu/gnu_tools_for_arm/11.3_rel1/bin/../lib/gcc/arm-none-eabi/11.3.1/thumb/v7e-m+fp/hard\libc.a(libc_a-readr.o)
                0x00008cbc                _read_r
 .text._write_r
                0x00008ce8       0x2c i:/mcu/gnu_tools_for_arm/11.3_rel1/bin/../lib/gcc/arm-none-eabi/11.3.1/thumb/v7e-m+fp/hard\libc.a(libc_a-writer.o)
                0x00008ce8                _write_r
 .text.__errno  0x00008d14        0xc i:/mcu/gnu_tools_for_arm/11.3_rel1/bin/../lib/gcc/arm-none-eabi/11.3.1/thumb/v7e-m+fp/hard\libc.a(libc_a-errno.o)
                0x00008d14                __errno
 .text.__libc_init_array
                0x00008d20       0x48 i:/mcu/gnu_tools_for_arm/11.3_rel1/bin/../lib/gcc/arm-none-eabi/11.3.1/thumb/v7e-m+fp/hard\libc.a(libc_a-init.o)
                0x00008d20                __libc_init_array
 .text.__retarget_lock_init_recursive
                0x00008d68        0x4 i:/mcu/gnu_tools_for_arm/11.3_rel1/bin/../lib/gcc/arm-none-eabi/11.3.1/thumb/v7e-m+fp/hard\libc.a(libc_a-lock.o)
                0x00008d68                __retarget_lock_init_recursive
 .text.__retarget_lock_close_recursive
                0x00008d6c        0x4 i:/mcu/gnu_tools_for_arm/11.3_rel1/bin/../lib/gcc/arm-none-eabi/11.3.1/thumb/v7e-m+fp/hard\libc.a(libc_a-lock.o)
                0x00008d6c                __retarget_lock_close_recursive
 .text.__retarget_lock_acquire_recursive
                0x00008d70        0x4 i:/mcu/gnu_tools_for_arm/11.3_rel1/bin/../lib/gcc/arm-none-eabi/11.3.1/thumb/v7e-m+fp/hard\libc.a(libc_a-lock.o)
                0x00008d70                __retarget_lock_acquire_recursive
 .text.__retarget_lock_release_recursive
                0x00008d74        0x4 i:/mcu/gnu_tools_for_arm/11.3_rel1/bin/../lib/gcc/arm-none-eabi/11.3.1/thumb/v7e-m+fp/hard\libc.a(libc_a-lock.o)
                0x00008d74                __retarget_lock_release_recursive
 .text.startup.register_fini
                0x00008d78       0x14 i:/mcu/gnu_tools_for_arm/11.3_rel1/bin/../lib/gcc/arm-none-eabi/11.3.1/thumb/v7e-m+fp/hard\libc.a(libc_a-__call_atexit.o)
 .text.__call_exitprocs
                0x00008d8c       0xc8 i:/mcu/gnu_tools_for_arm/11.3_rel1/bin/../lib/gcc/arm-none-eabi/11.3.1/thumb/v7e-m+fp/hard\libc.a(libc_a-__call_atexit.o)
                0x00008d8c                __call_exitprocs
 .text.atexit   0x00008e54        0xc i:/mcu/gnu_tools_for_arm/11.3_rel1/bin/../lib/gcc/arm-none-eabi/11.3.1/thumb/v7e-m+fp/hard\libc.a(libc_a-atexit.o)
                0x00008e54                atexit
 .text._malloc_trim_r
                0x00008e60       0xa0 i:/mcu/gnu_tools_for_arm/11.3_rel1/bin/../lib/gcc/arm-none-eabi/11.3.1/thumb/v7e-m+fp/hard\libc.a(libc_a-freer.o)
                0x00008e60                _malloc_trim_r
 .text._free_r  0x00008f00      0x20c i:/mcu/gnu_tools_for_arm/11.3_rel1/bin/../lib/gcc/arm-none-eabi/11.3.1/thumb/v7e-m+fp/hard\libc.a(libc_a-freer.o)
                0x00008f00                _free_r
 .text._malloc_r
                0x0000910c      0x560 i:/mcu/gnu_tools_for_arm/11.3_rel1/bin/../lib/gcc/arm-none-eabi/11.3.1/thumb/v7e-m+fp/hard\libc.a(libc_a-mallocr.o)
                0x0000910c                _malloc_r
 .text.__malloc_lock
                0x0000966c        0xc i:/mcu/gnu_tools_for_arm/11.3_rel1/bin/../lib/gcc/arm-none-eabi/11.3.1/thumb/v7e-m+fp/hard\libc.a(libc_a-mlock.o)
                0x0000966c                __malloc_lock
 .text.__malloc_unlock
                0x00009678        0xc i:/mcu/gnu_tools_for_arm/11.3_rel1/bin/../lib/gcc/arm-none-eabi/11.3.1/thumb/v7e-m+fp/hard\libc.a(libc_a-mlock.o)
                0x00009678                __malloc_unlock
 *fill*         0x00009684        0x4 
 .text._svfprintf_r
                0x00009688     0x1be0 i:/mcu/gnu_tools_for_arm/11.3_rel1/bin/../lib/gcc/arm-none-eabi/11.3.1/thumb/v7e-m+fp/hard\libc.a(libc_a-svfprintf.o)
                0x00009688                _svfprintf_r
 .text._fclose_r
                0x0000b268       0xc8 i:/mcu/gnu_tools_for_arm/11.3_rel1/bin/../lib/gcc/arm-none-eabi/11.3.1/thumb/v7e-m+fp/hard\libc.a(libc_a-fclose.o)
                0x0000b268                _fclose_r
 .text.__sflush_r
                0x0000b330      0x130 i:/mcu/gnu_tools_for_arm/11.3_rel1/bin/../lib/gcc/arm-none-eabi/11.3.1/thumb/v7e-m+fp/hard\libc.a(libc_a-fflush.o)
                0x0000b330                __sflush_r
 .text._fflush_r
                0x0000b460       0x54 i:/mcu/gnu_tools_for_arm/11.3_rel1/bin/../lib/gcc/arm-none-eabi/11.3.1/thumb/v7e-m+fp/hard\libc.a(libc_a-fflush.o)
                0x0000b460                _fflush_r
 .text.strncpy  0x0000b4b4       0x64 i:/mcu/gnu_tools_for_arm/11.3_rel1/bin/../lib/gcc/arm-none-eabi/11.3.1/thumb/v7e-m+fp/hard\libc.a(libc_a-strncpy.o)
                0x0000b4b4                strncpy
 .text.__locale_mb_cur_max
                0x0000b518        0xc i:/mcu/gnu_tools_for_arm/11.3_rel1/bin/../lib/gcc/arm-none-eabi/11.3.1/thumb/v7e-m+fp/hard\libc.a(libc_a-locale.o)
                0x0000b518                __locale_mb_cur_max
 .text._localeconv_r
                0x0000b524        0x8 i:/mcu/gnu_tools_for_arm/11.3_rel1/bin/../lib/gcc/arm-none-eabi/11.3.1/thumb/v7e-m+fp/hard\libc.a(libc_a-localeconv.o)
                0x0000b524                _localeconv_r
 .text._sbrk_r  0x0000b52c       0x24 i:/mcu/gnu_tools_for_arm/11.3_rel1/bin/../lib/gcc/arm-none-eabi/11.3.1/thumb/v7e-m+fp/hard\libc.a(libc_a-sbrkr.o)
                0x0000b52c                _sbrk_r
 .text.__libc_fini_array
                0x0000b550       0x28 i:/mcu/gnu_tools_for_arm/11.3_rel1/bin/../lib/gcc/arm-none-eabi/11.3.1/thumb/v7e-m+fp/hard\libc.a(libc_a-fini.o)
                0x0000b550                __libc_fini_array
 .text.frexp    0x0000b578       0x6c i:/mcu/gnu_tools_for_arm/11.3_rel1/bin/../lib/gcc/arm-none-eabi/11.3.1/thumb/v7e-m+fp/hard\libc.a(libm_a-s_frexp.o)
                0x0000b578                frexp
 .text.__register_exitproc
                0x0000b5e4       0x88 i:/mcu/gnu_tools_for_arm/11.3_rel1/bin/../lib/gcc/arm-none-eabi/11.3.1/thumb/v7e-m+fp/hard\libc.a(libc_a-__atexit.o)
                0x0000b5e4                __register_exitproc
 .text.quorem   0x0000b66c      0x128 i:/mcu/gnu_tools_for_arm/11.3_rel1/bin/../lib/gcc/arm-none-eabi/11.3.1/thumb/v7e-m+fp/hard\libc.a(libc_a-dtoa.o)
 *fill*         0x0000b794        0x4 
 .text._dtoa_r  0x0000b798      0xf3c i:/mcu/gnu_tools_for_arm/11.3_rel1/bin/../lib/gcc/arm-none-eabi/11.3.1/thumb/v7e-m+fp/hard\libc.a(libc_a-dtoa.o)
                0x0000b798                _dtoa_r
 .text.__ascii_mbtowc
                0x0000c6d4       0x2c i:/mcu/gnu_tools_for_arm/11.3_rel1/bin/../lib/gcc/arm-none-eabi/11.3.1/thumb/v7e-m+fp/hard\libc.a(libc_a-mbtowc_r.o)
                0x0000c6d4                __ascii_mbtowc
 .text._Balloc  0x0000c700       0x4c i:/mcu/gnu_tools_for_arm/11.3_rel1/bin/../lib/gcc/arm-none-eabi/11.3.1/thumb/v7e-m+fp/hard\libc.a(libc_a-mprec.o)
                0x0000c700                _Balloc
 .text._Bfree   0x0000c74c       0x14 i:/mcu/gnu_tools_for_arm/11.3_rel1/bin/../lib/gcc/arm-none-eabi/11.3.1/thumb/v7e-m+fp/hard\libc.a(libc_a-mprec.o)
                0x0000c74c                _Bfree
 .text.__multadd
                0x0000c760       0xa4 i:/mcu/gnu_tools_for_arm/11.3_rel1/bin/../lib/gcc/arm-none-eabi/11.3.1/thumb/v7e-m+fp/hard\libc.a(libc_a-mprec.o)
                0x0000c760                __multadd
 .text.__hi0bits
                0x0000c804       0x40 i:/mcu/gnu_tools_for_arm/11.3_rel1/bin/../lib/gcc/arm-none-eabi/11.3.1/thumb/v7e-m+fp/hard\libc.a(libc_a-mprec.o)
                0x0000c804                __hi0bits
 .text.__lo0bits
                0x0000c844       0x60 i:/mcu/gnu_tools_for_arm/11.3_rel1/bin/../lib/gcc/arm-none-eabi/11.3.1/thumb/v7e-m+fp/hard\libc.a(libc_a-mprec.o)
                0x0000c844                __lo0bits
 .text.__i2b    0x0000c8a4       0x5c i:/mcu/gnu_tools_for_arm/11.3_rel1/bin/../lib/gcc/arm-none-eabi/11.3.1/thumb/v7e-m+fp/hard\libc.a(libc_a-mprec.o)
                0x0000c8a4                __i2b
 .text.__multiply
                0x0000c900      0x15c i:/mcu/gnu_tools_for_arm/11.3_rel1/bin/../lib/gcc/arm-none-eabi/11.3.1/thumb/v7e-m+fp/hard\libc.a(libc_a-mprec.o)
                0x0000c900                __multiply
 .text.__pow5mult
                0x0000ca5c       0xc0 i:/mcu/gnu_tools_for_arm/11.3_rel1/bin/../lib/gcc/arm-none-eabi/11.3.1/thumb/v7e-m+fp/hard\libc.a(libc_a-mprec.o)
                0x0000ca5c                __pow5mult
 .text.__lshift
                0x0000cb1c       0xf0 i:/mcu/gnu_tools_for_arm/11.3_rel1/bin/../lib/gcc/arm-none-eabi/11.3.1/thumb/v7e-m+fp/hard\libc.a(libc_a-mprec.o)
                0x0000cb1c                __lshift
 .text.__mcmp   0x0000cc0c       0x44 i:/mcu/gnu_tools_for_arm/11.3_rel1/bin/../lib/gcc/arm-none-eabi/11.3.1/thumb/v7e-m+fp/hard\libc.a(libc_a-mprec.o)
                0x0000cc0c                __mcmp
 .text.__mdiff  0x0000cc50      0x154 i:/mcu/gnu_tools_for_arm/11.3_rel1/bin/../lib/gcc/arm-none-eabi/11.3.1/thumb/v7e-m+fp/hard\libc.a(libc_a-mprec.o)
                0x0000cc50                __mdiff
 .text.__d2b    0x0000cda4       0xd4 i:/mcu/gnu_tools_for_arm/11.3_rel1/bin/../lib/gcc/arm-none-eabi/11.3.1/thumb/v7e-m+fp/hard\libc.a(libc_a-mprec.o)
                0x0000cda4                __d2b
 .text.__ascii_wctomb
                0x0000ce78       0x1c i:/mcu/gnu_tools_for_arm/11.3_rel1/bin/../lib/gcc/arm-none-eabi/11.3.1/thumb/v7e-m+fp/hard\libc.a(libc_a-wctomb_r.o)
                0x0000ce78                __ascii_wctomb
 .text._wcrtomb_r
                0x0000ce94       0x4c i:/mcu/gnu_tools_for_arm/11.3_rel1/bin/../lib/gcc/arm-none-eabi/11.3.1/thumb/v7e-m+fp/hard\libc.a(libc_a-wcrtomb.o)
                0x0000ce94                _wcrtomb_r
 .text._wcsrtombs_r
                0x0000cee0       0x18 i:/mcu/gnu_tools_for_arm/11.3_rel1/bin/../lib/gcc/arm-none-eabi/11.3.1/thumb/v7e-m+fp/hard\libc.a(libc_a-wcsrtombs.o)
                0x0000cee0                _wcsrtombs_r
 .text.__ssprint_r
                0x0000cef8      0x100 i:/mcu/gnu_tools_for_arm/11.3_rel1/bin/../lib/gcc/arm-none-eabi/11.3.1/thumb/v7e-m+fp/hard\libc.a(libc_a-svfiprintf.o)
                0x0000cef8                __ssprint_r
 .text.memmove  0x0000cff8       0xf8 i:/mcu/gnu_tools_for_arm/11.3_rel1/bin/../lib/gcc/arm-none-eabi/11.3.1/thumb/v7e-m+fp/hard\libc.a(libc_a-memmove.o)
                0x0000cff8                memmove
 .text.__assert_func
                0x0000d0f0       0x40 i:/mcu/gnu_tools_for_arm/11.3_rel1/bin/../lib/gcc/arm-none-eabi/11.3.1/thumb/v7e-m+fp/hard\libc.a(libc_a-assert.o)
                0x0000d0f0                __assert_func
 .text._calloc_r
                0x0000d130       0x78 i:/mcu/gnu_tools_for_arm/11.3_rel1/bin/../lib/gcc/arm-none-eabi/11.3.1/thumb/v7e-m+fp/hard\libc.a(libc_a-callocr.o)
                0x0000d130                _calloc_r
 .text._realloc_r
                0x0000d1a8      0x3d8 i:/mcu/gnu_tools_for_arm/11.3_rel1/bin/../lib/gcc/arm-none-eabi/11.3.1/thumb/v7e-m+fp/hard\libc.a(libc_a-reallocr.o)
                0x0000d1a8                _realloc_r
 .text._wcsnrtombs_l
                0x0000d580      0x108 i:/mcu/gnu_tools_for_arm/11.3_rel1/bin/../lib/gcc/arm-none-eabi/11.3.1/thumb/v7e-m+fp/hard\libc.a(libc_a-wcsnrtombs.o)
                0x0000d580                _wcsnrtombs_l
 .text._wcsnrtombs_r
                0x0000d688       0x24 i:/mcu/gnu_tools_for_arm/11.3_rel1/bin/../lib/gcc/arm-none-eabi/11.3.1/thumb/v7e-m+fp/hard\libc.a(libc_a-wcsnrtombs.o)
                0x0000d688                _wcsnrtombs_r
 .text.fiprintf
                0x0000d6ac       0x28 i:/mcu/gnu_tools_for_arm/11.3_rel1/bin/../lib/gcc/arm-none-eabi/11.3.1/thumb/v7e-m+fp/hard\libc.a(libc_a-fiprintf.o)
                0x0000d6ac                fiprintf
 .text.__sprint_r.part.0
                0x0000d6d4       0x78 i:/mcu/gnu_tools_for_arm/11.3_rel1/bin/../lib/gcc/arm-none-eabi/11.3.1/thumb/v7e-m+fp/hard\libc.a(libc_a-vfiprintf.o)
 .text._vfiprintf_r
                0x0000d74c      0xf8c i:/mcu/gnu_tools_for_arm/11.3_rel1/bin/../lib/gcc/arm-none-eabi/11.3.1/thumb/v7e-m+fp/hard\libc.a(libc_a-vfiprintf.o)
                0x0000d74c                _vfiprintf_r
 .text.__sbprintf
                0x0000e6d8       0x80 i:/mcu/gnu_tools_for_arm/11.3_rel1/bin/../lib/gcc/arm-none-eabi/11.3.1/thumb/v7e-m+fp/hard\libc.a(libc_a-vfiprintf.o)
 .text.__sfvwrite_r
                0x0000e758      0x2f4 i:/mcu/gnu_tools_for_arm/11.3_rel1/bin/../lib/gcc/arm-none-eabi/11.3.1/thumb/v7e-m+fp/hard\libc.a(libc_a-fvwrite.o)
                0x0000e758                __sfvwrite_r
 .text.__swsetup_r
                0x0000ea4c       0xcc i:/mcu/gnu_tools_for_arm/11.3_rel1/bin/../lib/gcc/arm-none-eabi/11.3.1/thumb/v7e-m+fp/hard\libc.a(libc_a-wsetup.o)
                0x0000ea4c                __swsetup_r
 .text.__fputwc
                0x0000eb18       0xac i:/mcu/gnu_tools_for_arm/11.3_rel1/bin/../lib/gcc/arm-none-eabi/11.3.1/thumb/v7e-m+fp/hard\libc.a(libc_a-fputwc.o)
                0x0000eb18                __fputwc
 .text._fputwc_r
                0x0000ebc4       0x68 i:/mcu/gnu_tools_for_arm/11.3_rel1/bin/../lib/gcc/arm-none-eabi/11.3.1/thumb/v7e-m+fp/hard\libc.a(libc_a-fputwc.o)
                0x0000ebc4                _fputwc_r
 .text.abort    0x0000ec2c       0x10 i:/mcu/gnu_tools_for_arm/11.3_rel1/bin/../lib/gcc/arm-none-eabi/11.3.1/thumb/v7e-m+fp/hard\libc.a(libc_a-abort.o)
                0x0000ec2c                abort
 .text.__smakebuf_r
                0x0000ec3c       0xd8 i:/mcu/gnu_tools_for_arm/11.3_rel1/bin/../lib/gcc/arm-none-eabi/11.3.1/thumb/v7e-m+fp/hard\libc.a(libc_a-makebuf.o)
                0x0000ec3c                __smakebuf_r
 .text.__swbuf_r
                0x0000ed14       0xb0 i:/mcu/gnu_tools_for_arm/11.3_rel1/bin/../lib/gcc/arm-none-eabi/11.3.1/thumb/v7e-m+fp/hard\libc.a(libc_a-wbuf.o)
                0x0000ed14                __swbuf_r
 .text.raise    0x0000edc4       0x5c i:/mcu/gnu_tools_for_arm/11.3_rel1/bin/../lib/gcc/arm-none-eabi/11.3.1/thumb/v7e-m+fp/hard\libc.a(libc_a-signal.o)
                0x0000edc4                raise
 .text._fstat_r
                0x0000ee20       0x2c i:/mcu/gnu_tools_for_arm/11.3_rel1/bin/../lib/gcc/arm-none-eabi/11.3.1/thumb/v7e-m+fp/hard\libc.a(libc_a-fstatr.o)
                0x0000ee20                _fstat_r
 .text._isatty_r
                0x0000ee4c       0x24 i:/mcu/gnu_tools_for_arm/11.3_rel1/bin/../lib/gcc/arm-none-eabi/11.3.1/thumb/v7e-m+fp/hard\libc.a(libc_a-isattyr.o)
                0x0000ee4c                _isatty_r
 .text._kill_r  0x0000ee70       0x2c i:/mcu/gnu_tools_for_arm/11.3_rel1/bin/../lib/gcc/arm-none-eabi/11.3.1/thumb/v7e-m+fp/hard\libc.a(libc_a-signalr.o)
                0x0000ee70                _kill_r
 .text._getpid_r
                0x0000ee9c        0x4 i:/mcu/gnu_tools_for_arm/11.3_rel1/bin/../lib/gcc/arm-none-eabi/11.3.1/thumb/v7e-m+fp/hard\libc.a(libc_a-signalr.o)
                0x0000ee9c                _getpid_r
 .text._sbrk    0x0000eea0       0x1c i:/mcu/gnu_tools_for_arm/11.3_rel1/bin/../lib/gcc/arm-none-eabi/11.3.1/thumb/v7e-m+fp/hard\libnosys.a(sbrk.o)
                0x0000eea0                _sbrk
                0x0000eebc                . = ALIGN (0x4)
 *(.ctors)
                0x0000eebc                . = ALIGN (0x4)
 *(.dtors)
                0x0000eebc                . = ALIGN (0x4)
                0x0000eebc                __init_array_start = .
 *(.init_array*)
 .init_array    0x0000eebc        0x4 i:/mcu/gnu_tools_for_arm/11.3_rel1/bin/../lib/gcc/arm-none-eabi/11.3.1/thumb/v7e-m+fp/hard/crtbegin.o
 .init_array.00000
                0x0000eec0        0x4 i:/mcu/gnu_tools_for_arm/11.3_rel1/bin/../lib/gcc/arm-none-eabi/11.3.1/thumb/v7e-m+fp/hard\libc.a(libc_a-__call_atexit.o)
                0x0000eec4                __init_array_end = .
 *(.init)
 .init          0x0000eec4        0x4 i:/mcu/gnu_tools_for_arm/11.3_rel1/bin/../lib/gcc/arm-none-eabi/11.3.1/thumb/v7e-m+fp/hard/crti.o
                0x0000eec4                _init
 .init          0x0000eec8        0x8 i:/mcu/gnu_tools_for_arm/11.3_rel1/bin/../lib/gcc/arm-none-eabi/11.3.1/thumb/v7e-m+fp/hard/crtn.o
 *(.fini*)
 .fini          0x0000eed0        0x4 i:/mcu/gnu_tools_for_arm/11.3_rel1/bin/../lib/gcc/arm-none-eabi/11.3.1/thumb/v7e-m+fp/hard/crti.o
                0x0000eed0                _fini
 .fini_array    0x0000eed4        0x4 i:/mcu/gnu_tools_for_arm/11.3_rel1/bin/../lib/gcc/arm-none-eabi/11.3.1/thumb/v7e-m+fp/hard/crtbegin.o
 .fini          0x0000eed8        0x8 i:/mcu/gnu_tools_for_arm/11.3_rel1/bin/../lib/gcc/arm-none-eabi/11.3.1/thumb/v7e-m+fp/hard/crtn.o

.glue_7         0x0000eee0        0x0
 .glue_7        0x0000eee0        0x0 linker stubs

.glue_7t        0x0000eee0        0x0
 .glue_7t       0x0000eee0        0x0 linker stubs

.vfp11_veneer   0x0000eee0        0x0
 .vfp11_veneer  0x0000eee0        0x0 linker stubs

.v4_bx          0x0000eee0        0x0
 .v4_bx         0x0000eee0        0x0 linker stubs

.iplt           0x0000eee0        0x0
 .iplt          0x0000eee0        0x0 i:/mcu/gnu_tools_for_arm/11.3_rel1/bin/../lib/gcc/arm-none-eabi/11.3.1/thumb/v7e-m+fp/hard/crtbegin.o

.rodata         0x0000eee0      0x600
 *(.rodata)
 .rodata        0x0000eee0       0x76 build/main.o
 *fill*         0x0000ef56        0x2 
 .rodata        0x0000ef58       0x4c build/gpio.o
 .rodata        0x0000efa4       0x90 build/interrupt.o
 .rodata        0x0000f034       0x8c build/user_periph.o
 .rodata        0x0000f0c0       0x35 build/user_uart.o
 *(.rodata.*)
 *fill*         0x0000f0f5        0x3 
 .rodata._svfprintf_r.str1.4
                0x0000f0f8       0x42 i:/mcu/gnu_tools_for_arm/11.3_rel1/bin/../lib/gcc/arm-none-eabi/11.3.1/thumb/v7e-m+fp/hard\libc.a(libc_a-svfprintf.o)
 *fill*         0x0000f13a        0x2 
 .rodata.blanks.1
                0x0000f13c       0x10 i:/mcu/gnu_tools_for_arm/11.3_rel1/bin/../lib/gcc/arm-none-eabi/11.3.1/thumb/v7e-m+fp/hard\libc.a(libc_a-svfprintf.o)
 .rodata.zeroes.0
                0x0000f14c       0x10 i:/mcu/gnu_tools_for_arm/11.3_rel1/bin/../lib/gcc/arm-none-eabi/11.3.1/thumb/v7e-m+fp/hard\libc.a(libc_a-svfprintf.o)
 .rodata.str1.4
                0x0000f15c       0x48 i:/mcu/gnu_tools_for_arm/11.3_rel1/bin/../lib/gcc/arm-none-eabi/11.3.1/thumb/v7e-m+fp/hard\libc.a(libc_a-locale.o)
                                 0x4c (size before relaxing)
 .rodata._dtoa_r.str1.4
                0x0000f1a4       0x7d i:/mcu/gnu_tools_for_arm/11.3_rel1/bin/../lib/gcc/arm-none-eabi/11.3.1/thumb/v7e-m+fp/hard\libc.a(libc_a-dtoa.o)
                                 0x81 (size before relaxing)
 *fill*         0x0000f221        0x3 
 .rodata.__multadd.str1.4
                0x0000f224       0x5a i:/mcu/gnu_tools_for_arm/11.3_rel1/bin/../lib/gcc/arm-none-eabi/11.3.1/thumb/v7e-m+fp/hard\libc.a(libc_a-mprec.o)
                                 0x6e (size before relaxing)
 *fill*         0x0000f27e        0x2 
 .rodata.__mprec_bigtens
                0x0000f280       0x28 i:/mcu/gnu_tools_for_arm/11.3_rel1/bin/../lib/gcc/arm-none-eabi/11.3.1/thumb/v7e-m+fp/hard\libc.a(libc_a-mprec.o)
                0x0000f280                __mprec_bigtens
 .rodata.__mprec_tens
                0x0000f2a8       0xc8 i:/mcu/gnu_tools_for_arm/11.3_rel1/bin/../lib/gcc/arm-none-eabi/11.3.1/thumb/v7e-m+fp/hard\libc.a(libc_a-mprec.o)
                0x0000f2a8                __mprec_tens
 .rodata.p05.0  0x0000f370        0xc i:/mcu/gnu_tools_for_arm/11.3_rel1/bin/../lib/gcc/arm-none-eabi/11.3.1/thumb/v7e-m+fp/hard\libc.a(libc_a-mprec.o)
 .rodata._ctype_
                0x0000f37c      0x101 i:/mcu/gnu_tools_for_arm/11.3_rel1/bin/../lib/gcc/arm-none-eabi/11.3.1/thumb/v7e-m+fp/hard\libc.a(libc_a-ctype_.o)
                0x0000f37c                _ctype_
 *fill*         0x0000f47d        0x3 
 .rodata.__assert_func.str1.4
                0x0000f480       0x3f i:/mcu/gnu_tools_for_arm/11.3_rel1/bin/../lib/gcc/arm-none-eabi/11.3.1/thumb/v7e-m+fp/hard\libc.a(libc_a-assert.o)
                                 0x43 (size before relaxing)
 .rodata._vfiprintf_r.str1.4
                0x0000f4bf       0x2f i:/mcu/gnu_tools_for_arm/11.3_rel1/bin/../lib/gcc/arm-none-eabi/11.3.1/thumb/v7e-m+fp/hard\libc.a(libc_a-vfiprintf.o)
 *fill*         0x0000f4bf        0x1 
 .rodata.blanks.1
                0x0000f4c0       0x10 i:/mcu/gnu_tools_for_arm/11.3_rel1/bin/../lib/gcc/arm-none-eabi/11.3.1/thumb/v7e-m+fp/hard\libc.a(libc_a-vfiprintf.o)
 .rodata.zeroes.0
                0x0000f4d0       0x10 i:/mcu/gnu_tools_for_arm/11.3_rel1/bin/../lib/gcc/arm-none-eabi/11.3.1/thumb/v7e-m+fp/hard\libc.a(libc_a-vfiprintf.o)

.eh_frame       0x0000f4e0        0x0
 .eh_frame      0x0000f4e0        0x0 i:/mcu/gnu_tools_for_arm/11.3_rel1/bin/../lib/gcc/arm-none-eabi/11.3.1/thumb/v7e-m+fp/hard/crtbegin.o

.preinitcall    0x0000f4e0        0xc
                0x0000f4e0                __preinit_start = .
 *(.preinitcall)
 .preinitcall   0x0000f4e0        0x4 build/user_uart.o
 .preinitcall   0x0000f4e4        0x4 build/user_dma.o
 .preinitcall   0x0000f4e8        0x4 build/iic_bus.o
                0x0000f4ec                __preinit_end = .

.ARM.exidx      0x0000f4ec        0x8
                0x0000f4ec                __exidx_start = .
 *(.ARM.exidx* .gnu.linkonce.armexidx.*)
 .ARM.exidx     0x0000f4ec        0x8 i:/mcu/gnu_tools_for_arm/11.3_rel1/bin/../lib/gcc/arm-none-eabi/11.3.1/thumb/v7e-m+fp/hard/crt0.o
                                 0x10 (size before relaxing)
                0x0000f4f4                __exidx_end = .

.ARM.extab      0x0000f4f4        0x0
 *(.ARM.extab* .gnu.linkonce.armextab.*)
 .ARM.extab     0x0000f4f4        0x0 i:/mcu/gnu_tools_for_arm/11.3_rel1/bin/../lib/gcc/arm-none-eabi/11.3.1/thumb/v7e-m+fp/hard/crt0.o
                0x0000f4f4                __etext = .

.rel.dyn        0x0000f4f4        0x0
 .rel.iplt      0x0000f4f4        0x0 i:/mcu/gnu_tools_for_arm/11.3_rel1/bin/../lib/gcc/arm-none-eabi/11.3.1/thumb/v7e-m+fp/hard/crtbegin.o

.data           0x20000000      0x71c load address 0x0000f4f4
                0x0000f4f4                __data_load__ = LOADADDR (.data)
                0x20000000                __data_start__ = .
 *(.data)
 .data          0x20000000        0x0 i:/mcu/gnu_tools_for_arm/11.3_rel1/bin/../lib/gcc/arm-none-eabi/11.3.1/thumb/v7e-m+fp/hard/crti.o
 .data          0x20000000        0x0 i:/mcu/gnu_tools_for_arm/11.3_rel1/bin/../lib/gcc/arm-none-eabi/11.3.1/thumb/v7e-m+fp/hard/crtbegin.o
 .data          0x20000000        0x0 i:/mcu/gnu_tools_for_arm/11.3_rel1/bin/../lib/gcc/arm-none-eabi/11.3.1/thumb/v7e-m+fp/hard/crt0.o
 .data          0x20000000        0x0 build/main.o
 .data          0x20000000        0x0 build/cpu.o
 .data          0x20000000        0x0 build/cs.o
 .data          0x20000000       0x40 build/flash.o
 .data          0x20000040        0x0 build/fpu.o
 .data          0x20000040        0x0 build/gpio.o
 .data          0x20000040        0x0 build/interrupt.o
 .data          0x20000040        0x0 build/mpu.o
 .data          0x20000040        0x0 build/pcm.o
 .data          0x20000040        0x0 build/pss.o
 .data          0x20000040        0x0 build/ref_a.o
 .data          0x20000040        0x0 build/reset.o
 .data          0x20000040        0x0 build/rtc_c.o
 .data          0x20000040        0x0 build/sysctl.o
 .data          0x20000040        0x0 build/systick.o
 .data          0x20000040        0x0 build/uart.o
 .data          0x20000040        0x0 build/wdt_a.o
 .data          0x20000040        0x0 build/startup_msp432p401r_gcc.o
 .data          0x20000040        0x4 build/system_msp432p401r.o
                0x20000040                SystemCoreClock
 .data          0x20000044        0x0 build/user_periph.o
 .data          0x20000044        0x4 build/syscalls.o
                0x20000044                environ
 .data          0x20000048        0x0 build/user_uart.o
 .data          0x20000048        0x0 build/user_dma.o
 .data          0x20000048        0x0 build/iic_bus.o
 .data          0x20000048        0x0 i:/mcu/gnu_tools_for_arm/11.3_rel1/bin/../lib/gcc/arm-none-eabi/11.3.1/thumb/v7e-m+fp/hard\libc.a(libc_a-exit.o)
 .data          0x20000048        0x0 i:/mcu/gnu_tools_for_arm/11.3_rel1/bin/../lib/gcc/arm-none-eabi/11.3.1/thumb/v7e-m+fp/hard\libc.a(libc_a-findfp.o)
 .data          0x20000048        0x0 i:/mcu/gnu_tools_for_arm/11.3_rel1/bin/../lib/gcc/arm-none-eabi/11.3.1/thumb/v7e-m+fp/hard\libc.a(libc_a-fwalk.o)
 .data          0x20000048        0x0 i:/mcu/gnu_tools_for_arm/11.3_rel1/bin/../lib/gcc/arm-none-eabi/11.3.1/thumb/v7e-m+fp/hard\libc.a(libc_a-sprintf.o)
 .data          0x20000048        0x0 i:/mcu/gnu_tools_for_arm/11.3_rel1/bin/../lib/gcc/arm-none-eabi/11.3.1/thumb/v7e-m+fp/hard\libc.a(libc_a-stdio.o)
 .data          0x20000048        0x0 i:/mcu/gnu_tools_for_arm/11.3_rel1/bin/../lib/gcc/arm-none-eabi/11.3.1/thumb/v7e-m+fp/hard\libc.a(libc_a-memset.o)
 .data          0x20000048        0x0 i:/mcu/gnu_tools_for_arm/11.3_rel1/bin/../lib/gcc/arm-none-eabi/11.3.1/thumb/v7e-m+fp/hard\libc.a(libc_a-closer.o)
 .data          0x20000048        0x0 i:/mcu/gnu_tools_for_arm/11.3_rel1/bin/../lib/gcc/arm-none-eabi/11.3.1/thumb/v7e-m+fp/hard\libc.a(libc_a-reent.o)
 .data          0x20000048        0x0 i:/mcu/gnu_tools_for_arm/11.3_rel1/bin/../lib/gcc/arm-none-eabi/11.3.1/thumb/v7e-m+fp/hard\libc.a(libc_a-impure.o)
 .data          0x20000048        0x0 i:/mcu/gnu_tools_for_arm/11.3_rel1/bin/../lib/gcc/arm-none-eabi/11.3.1/thumb/v7e-m+fp/hard\libc.a(libc_a-lseekr.o)
 .data          0x20000048        0x0 i:/mcu/gnu_tools_for_arm/11.3_rel1/bin/../lib/gcc/arm-none-eabi/11.3.1/thumb/v7e-m+fp/hard\libc.a(libc_a-readr.o)
 .data          0x20000048        0x0 i:/mcu/gnu_tools_for_arm/11.3_rel1/bin/../lib/gcc/arm-none-eabi/11.3.1/thumb/v7e-m+fp/hard\libc.a(libc_a-writer.o)
 .data          0x20000048        0x0 i:/mcu/gnu_tools_for_arm/11.3_rel1/bin/../lib/gcc/arm-none-eabi/11.3.1/thumb/v7e-m+fp/hard\libc.a(libc_a-errno.o)
 .data          0x20000048        0x0 i:/mcu/gnu_tools_for_arm/11.3_rel1/bin/../lib/gcc/arm-none-eabi/11.3.1/thumb/v7e-m+fp/hard\libc.a(libc_a-init.o)
 .data          0x20000048        0x0 i:/mcu/gnu_tools_for_arm/11.3_rel1/bin/../lib/gcc/arm-none-eabi/11.3.1/thumb/v7e-m+fp/hard\libc.a(libc_a-lock.o)
 .data          0x20000048        0x0 i:/mcu/gnu_tools_for_arm/11.3_rel1/bin/../lib/gcc/arm-none-eabi/11.3.1/thumb/v7e-m+fp/hard\libc.a(libc_a-__call_atexit.o)
 .data          0x20000048        0x0 i:/mcu/gnu_tools_for_arm/11.3_rel1/bin/../lib/gcc/arm-none-eabi/11.3.1/thumb/v7e-m+fp/hard\libc.a(libc_a-atexit.o)
 .data          0x20000048        0x0 i:/mcu/gnu_tools_for_arm/11.3_rel1/bin/../lib/gcc/arm-none-eabi/11.3.1/thumb/v7e-m+fp/hard\libc.a(libc_a-freer.o)
 .data          0x20000048        0x0 i:/mcu/gnu_tools_for_arm/11.3_rel1/bin/../lib/gcc/arm-none-eabi/11.3.1/thumb/v7e-m+fp/hard\libc.a(libc_a-mallocr.o)
 .data          0x20000048        0x0 i:/mcu/gnu_tools_for_arm/11.3_rel1/bin/../lib/gcc/arm-none-eabi/11.3.1/thumb/v7e-m+fp/hard\libc.a(libc_a-mlock.o)
 .data          0x20000048        0x0 i:/mcu/gnu_tools_for_arm/11.3_rel1/bin/../lib/gcc/arm-none-eabi/11.3.1/thumb/v7e-m+fp/hard\libc.a(libc_a-svfprintf.o)
 .data          0x20000048        0x0 i:/mcu/gnu_tools_for_arm/11.3_rel1/bin/../lib/gcc/arm-none-eabi/11.3.1/thumb/v7e-m+fp/hard\libc.a(libc_a-fclose.o)
 .data          0x20000048        0x0 i:/mcu/gnu_tools_for_arm/11.3_rel1/bin/../lib/gcc/arm-none-eabi/11.3.1/thumb/v7e-m+fp/hard\libc.a(libc_a-fflush.o)
 .data          0x20000048        0x0 i:/mcu/gnu_tools_for_arm/11.3_rel1/bin/../lib/gcc/arm-none-eabi/11.3.1/thumb/v7e-m+fp/hard\libc.a(libc_a-strncpy.o)
 .data          0x20000048        0x0 i:/mcu/gnu_tools_for_arm/11.3_rel1/bin/../lib/gcc/arm-none-eabi/11.3.1/thumb/v7e-m+fp/hard\libc.a(libc_a-locale.o)
 .data          0x20000048        0x0 i:/mcu/gnu_tools_for_arm/11.3_rel1/bin/../lib/gcc/arm-none-eabi/11.3.1/thumb/v7e-m+fp/hard\libc.a(libc_a-localeconv.o)
 .data          0x20000048        0x0 i:/mcu/gnu_tools_for_arm/11.3_rel1/bin/../lib/gcc/arm-none-eabi/11.3.1/thumb/v7e-m+fp/hard\libc.a(libc_a-sbrkr.o)
 .data          0x20000048        0x0 i:/mcu/gnu_tools_for_arm/11.3_rel1/bin/../lib/gcc/arm-none-eabi/11.3.1/thumb/v7e-m+fp/hard\libc.a(libc_a-fini.o)
 .data          0x20000048        0x0 i:/mcu/gnu_tools_for_arm/11.3_rel1/bin/../lib/gcc/arm-none-eabi/11.3.1/thumb/v7e-m+fp/hard\libc.a(libc_a-strcmp.o)
 .data          0x20000048        0x0 i:/mcu/gnu_tools_for_arm/11.3_rel1/bin/../lib/gcc/arm-none-eabi/11.3.1/thumb/v7e-m+fp/hard\libc.a(libc_a-strcpy.o)
 .data          0x20000048        0x0 i:/mcu/gnu_tools_for_arm/11.3_rel1/bin/../lib/gcc/arm-none-eabi/11.3.1/thumb/v7e-m+fp/hard\libc.a(libc_a-memchr.o)
 .data          0x20000048        0x0 i:/mcu/gnu_tools_for_arm/11.3_rel1/bin/../lib/gcc/arm-none-eabi/11.3.1/thumb/v7e-m+fp/hard\libc.a(libc_a-strlen.o)
 .data          0x20000048        0x0 i:/mcu/gnu_tools_for_arm/11.3_rel1/bin/../lib/gcc/arm-none-eabi/11.3.1/thumb/v7e-m+fp/hard\libc.a(libm_a-s_frexp.o)
 .data          0x20000048        0x0 i:/mcu/gnu_tools_for_arm/11.3_rel1/bin/../lib/gcc/arm-none-eabi/11.3.1/thumb/v7e-m+fp/hard\libc.a(libc_a-__atexit.o)
 .data          0x20000048        0x0 i:/mcu/gnu_tools_for_arm/11.3_rel1/bin/../lib/gcc/arm-none-eabi/11.3.1/thumb/v7e-m+fp/hard\libc.a(libc_a-dtoa.o)
 .data          0x20000048        0x0 i:/mcu/gnu_tools_for_arm/11.3_rel1/bin/../lib/gcc/arm-none-eabi/11.3.1/thumb/v7e-m+fp/hard\libc.a(libc_a-getenv_r.o)
 .data          0x20000048        0x0 i:/mcu/gnu_tools_for_arm/11.3_rel1/bin/../lib/gcc/arm-none-eabi/11.3.1/thumb/v7e-m+fp/hard\libc.a(libc_a-mbtowc_r.o)
 .data          0x20000048        0x0 i:/mcu/gnu_tools_for_arm/11.3_rel1/bin/../lib/gcc/arm-none-eabi/11.3.1/thumb/v7e-m+fp/hard\libc.a(libc_a-mprec.o)
 .data          0x20000048        0x0 i:/mcu/gnu_tools_for_arm/11.3_rel1/bin/../lib/gcc/arm-none-eabi/11.3.1/thumb/v7e-m+fp/hard\libc.a(libc_a-strtol.o)
 .data          0x20000048        0x0 i:/mcu/gnu_tools_for_arm/11.3_rel1/bin/../lib/gcc/arm-none-eabi/11.3.1/thumb/v7e-m+fp/hard\libc.a(libc_a-wctomb_r.o)
 .data          0x20000048        0x0 i:/mcu/gnu_tools_for_arm/11.3_rel1/bin/../lib/gcc/arm-none-eabi/11.3.1/thumb/v7e-m+fp/hard\libc.a(libc_a-wcrtomb.o)
 .data          0x20000048        0x0 i:/mcu/gnu_tools_for_arm/11.3_rel1/bin/../lib/gcc/arm-none-eabi/11.3.1/thumb/v7e-m+fp/hard\libc.a(libc_a-wcsrtombs.o)
 .data          0x20000048        0x0 i:/mcu/gnu_tools_for_arm/11.3_rel1/bin/../lib/gcc/arm-none-eabi/11.3.1/thumb/v7e-m+fp/hard\libc.a(libc_a-ctype_.o)
 .data          0x20000048        0x0 i:/mcu/gnu_tools_for_arm/11.3_rel1/bin/../lib/gcc/arm-none-eabi/11.3.1/thumb/v7e-m+fp/hard\libc.a(libc_a-svfiprintf.o)
 .data          0x20000048        0x0 i:/mcu/gnu_tools_for_arm/11.3_rel1/bin/../lib/gcc/arm-none-eabi/11.3.1/thumb/v7e-m+fp/hard\libc.a(libc_a-memmove.o)
 .data          0x20000048        0x0 i:/mcu/gnu_tools_for_arm/11.3_rel1/bin/../lib/gcc/arm-none-eabi/11.3.1/thumb/v7e-m+fp/hard\libc.a(libc_a-strcasecmp.o)
 .data          0x20000048        0x0 i:/mcu/gnu_tools_for_arm/11.3_rel1/bin/../lib/gcc/arm-none-eabi/11.3.1/thumb/v7e-m+fp/hard\libc.a(libc_a-strcat.o)
 .data          0x20000048        0x0 i:/mcu/gnu_tools_for_arm/11.3_rel1/bin/../lib/gcc/arm-none-eabi/11.3.1/thumb/v7e-m+fp/hard\libc.a(libc_a-strchr.o)
 .data          0x20000048        0x0 i:/mcu/gnu_tools_for_arm/11.3_rel1/bin/../lib/gcc/arm-none-eabi/11.3.1/thumb/v7e-m+fp/hard\libc.a(libc_a-strlcpy.o)
 .data          0x20000048        0x0 i:/mcu/gnu_tools_for_arm/11.3_rel1/bin/../lib/gcc/arm-none-eabi/11.3.1/thumb/v7e-m+fp/hard\libc.a(libc_a-strncasecmp.o)
 .data          0x20000048        0x0 i:/mcu/gnu_tools_for_arm/11.3_rel1/bin/../lib/gcc/arm-none-eabi/11.3.1/thumb/v7e-m+fp/hard\libc.a(libc_a-strncmp.o)
 .data          0x20000048        0x0 i:/mcu/gnu_tools_for_arm/11.3_rel1/bin/../lib/gcc/arm-none-eabi/11.3.1/thumb/v7e-m+fp/hard\libc.a(libc_a-memcpy.o)
 .data          0x20000048        0x0 i:/mcu/gnu_tools_for_arm/11.3_rel1/bin/../lib/gcc/arm-none-eabi/11.3.1/thumb/v7e-m+fp/hard\libc.a(libc_a-assert.o)
 .data          0x20000048        0x0 i:/mcu/gnu_tools_for_arm/11.3_rel1/bin/../lib/gcc/arm-none-eabi/11.3.1/thumb/v7e-m+fp/hard\libc.a(libc_a-callocr.o)
 .data          0x20000048        0x0 i:/mcu/gnu_tools_for_arm/11.3_rel1/bin/../lib/gcc/arm-none-eabi/11.3.1/thumb/v7e-m+fp/hard\libc.a(libc_a-envlock.o)
 .data          0x20000048        0x0 i:/mcu/gnu_tools_for_arm/11.3_rel1/bin/../lib/gcc/arm-none-eabi/11.3.1/thumb/v7e-m+fp/hard\libc.a(libc_a-reallocr.o)
 .data          0x20000048        0x0 i:/mcu/gnu_tools_for_arm/11.3_rel1/bin/../lib/gcc/arm-none-eabi/11.3.1/thumb/v7e-m+fp/hard\libc.a(libc_a-wcsnrtombs.o)
 .data          0x20000048        0x0 i:/mcu/gnu_tools_for_arm/11.3_rel1/bin/../lib/gcc/arm-none-eabi/11.3.1/thumb/v7e-m+fp/hard\libc.a(libc_a-fiprintf.o)
 .data          0x20000048        0x0 i:/mcu/gnu_tools_for_arm/11.3_rel1/bin/../lib/gcc/arm-none-eabi/11.3.1/thumb/v7e-m+fp/hard\libc.a(libc_a-vfiprintf.o)
 .data          0x20000048        0x0 i:/mcu/gnu_tools_for_arm/11.3_rel1/bin/../lib/gcc/arm-none-eabi/11.3.1/thumb/v7e-m+fp/hard\libc.a(libc_a-fvwrite.o)
 .data          0x20000048        0x0 i:/mcu/gnu_tools_for_arm/11.3_rel1/bin/../lib/gcc/arm-none-eabi/11.3.1/thumb/v7e-m+fp/hard\libc.a(libc_a-wsetup.o)
 .data          0x20000048        0x0 i:/mcu/gnu_tools_for_arm/11.3_rel1/bin/../lib/gcc/arm-none-eabi/11.3.1/thumb/v7e-m+fp/hard\libc.a(libc_a-fputwc.o)
 .data          0x20000048        0x0 i:/mcu/gnu_tools_for_arm/11.3_rel1/bin/../lib/gcc/arm-none-eabi/11.3.1/thumb/v7e-m+fp/hard\libc.a(libc_a-abort.o)
 .data          0x20000048        0x0 i:/mcu/gnu_tools_for_arm/11.3_rel1/bin/../lib/gcc/arm-none-eabi/11.3.1/thumb/v7e-m+fp/hard\libc.a(libc_a-makebuf.o)
 .data          0x20000048        0x0 i:/mcu/gnu_tools_for_arm/11.3_rel1/bin/../lib/gcc/arm-none-eabi/11.3.1/thumb/v7e-m+fp/hard\libc.a(libc_a-wbuf.o)
 .data          0x20000048        0x0 i:/mcu/gnu_tools_for_arm/11.3_rel1/bin/../lib/gcc/arm-none-eabi/11.3.1/thumb/v7e-m+fp/hard\libc.a(libc_a-signal.o)
 .data          0x20000048        0x0 i:/mcu/gnu_tools_for_arm/11.3_rel1/bin/../lib/gcc/arm-none-eabi/11.3.1/thumb/v7e-m+fp/hard\libc.a(libc_a-fstatr.o)
 .data          0x20000048        0x0 i:/mcu/gnu_tools_for_arm/11.3_rel1/bin/../lib/gcc/arm-none-eabi/11.3.1/thumb/v7e-m+fp/hard\libc.a(libc_a-isattyr.o)
 .data          0x20000048        0x0 i:/mcu/gnu_tools_for_arm/11.3_rel1/bin/../lib/gcc/arm-none-eabi/11.3.1/thumb/v7e-m+fp/hard\libc.a(libc_a-signalr.o)
 .data          0x20000048        0x0 i:/mcu/gnu_tools_for_arm/11.3_rel1/bin/../lib/gcc/arm-none-eabi/11.3.1/thumb/v7e-m+fp/hard\libnosys.a(sbrk.o)
 .data          0x20000048        0x0 i:/mcu/gnu_tools_for_arm/11.3_rel1/bin/../lib/gcc/arm-none-eabi/11.3.1/thumb/v7e-m+fp/hard\libgcc.a(_arm_muldf3.o)
 .data          0x20000048        0x0 i:/mcu/gnu_tools_for_arm/11.3_rel1/bin/../lib/gcc/arm-none-eabi/11.3.1/thumb/v7e-m+fp/hard\libgcc.a(_arm_addsubdf3.o)
 .data          0x20000048        0x0 i:/mcu/gnu_tools_for_arm/11.3_rel1/bin/../lib/gcc/arm-none-eabi/11.3.1/thumb/v7e-m+fp/hard\libgcc.a(_arm_muldivdf3.o)
 .data          0x20000048        0x0 i:/mcu/gnu_tools_for_arm/11.3_rel1/bin/../lib/gcc/arm-none-eabi/11.3.1/thumb/v7e-m+fp/hard\libgcc.a(_arm_cmpdf2.o)
 .data          0x20000048        0x0 i:/mcu/gnu_tools_for_arm/11.3_rel1/bin/../lib/gcc/arm-none-eabi/11.3.1/thumb/v7e-m+fp/hard\libgcc.a(_arm_unorddf2.o)
 .data          0x20000048        0x0 i:/mcu/gnu_tools_for_arm/11.3_rel1/bin/../lib/gcc/arm-none-eabi/11.3.1/thumb/v7e-m+fp/hard\libgcc.a(_arm_fixdfsi.o)
 .data          0x20000048        0x0 i:/mcu/gnu_tools_for_arm/11.3_rel1/bin/../lib/gcc/arm-none-eabi/11.3.1/thumb/v7e-m+fp/hard/crtend.o
 .data          0x20000048        0x0 i:/mcu/gnu_tools_for_arm/11.3_rel1/bin/../lib/gcc/arm-none-eabi/11.3.1/thumb/v7e-m+fp/hard/crtn.o
 *(.data*)
 .data.__dso_handle
                0x20000048        0x4 i:/mcu/gnu_tools_for_arm/11.3_rel1/bin/../lib/gcc/arm-none-eabi/11.3.1/thumb/v7e-m+fp/hard/crtbegin.o
                0x20000048                __dso_handle
 .data.__sglue  0x2000004c        0xc i:/mcu/gnu_tools_for_arm/11.3_rel1/bin/../lib/gcc/arm-none-eabi/11.3.1/thumb/v7e-m+fp/hard\libc.a(libc_a-findfp.o)
                0x2000004c                __sglue
 .data._impure_data
                0x20000058      0x120 i:/mcu/gnu_tools_for_arm/11.3_rel1/bin/../lib/gcc/arm-none-eabi/11.3.1/thumb/v7e-m+fp/hard\libc.a(libc_a-impure.o)
                0x20000058                _impure_data
 .data._impure_ptr
                0x20000178        0x4 i:/mcu/gnu_tools_for_arm/11.3_rel1/bin/../lib/gcc/arm-none-eabi/11.3.1/thumb/v7e-m+fp/hard\libc.a(libc_a-impure.o)
                0x20000178                _impure_ptr
 .data.__atexit_recursive_mutex
                0x2000017c        0x4 i:/mcu/gnu_tools_for_arm/11.3_rel1/bin/../lib/gcc/arm-none-eabi/11.3.1/thumb/v7e-m+fp/hard\libc.a(libc_a-__call_atexit.o)
                0x2000017c                __atexit_recursive_mutex
 .data.__malloc_av_
                0x20000180      0x408 i:/mcu/gnu_tools_for_arm/11.3_rel1/bin/../lib/gcc/arm-none-eabi/11.3.1/thumb/v7e-m+fp/hard\libc.a(libc_a-mallocr.o)
                0x20000180                __malloc_av_
 .data.__malloc_sbrk_base
                0x20000588        0x4 i:/mcu/gnu_tools_for_arm/11.3_rel1/bin/../lib/gcc/arm-none-eabi/11.3.1/thumb/v7e-m+fp/hard\libc.a(libc_a-mallocr.o)
                0x20000588                __malloc_sbrk_base
 .data.__malloc_trim_threshold
                0x2000058c        0x4 i:/mcu/gnu_tools_for_arm/11.3_rel1/bin/../lib/gcc/arm-none-eabi/11.3.1/thumb/v7e-m+fp/hard\libc.a(libc_a-mallocr.o)
                0x2000058c                __malloc_trim_threshold
 .data.__default_locale
                0x20000590       0x20 i:/mcu/gnu_tools_for_arm/11.3_rel1/bin/../lib/gcc/arm-none-eabi/11.3.1/thumb/v7e-m+fp/hard\libc.a(libc_a-locale.o)
                0x20000590                __default_locale
 .data.__global_locale
                0x200005b0      0x16c i:/mcu/gnu_tools_for_arm/11.3_rel1/bin/../lib/gcc/arm-none-eabi/11.3.1/thumb/v7e-m+fp/hard\libc.a(libc_a-locale.o)
                0x200005b0                __global_locale
                0x2000071c                . = ALIGN (0x4)
                0x2000071c                __data_end__ = .

.tm_clone_table
                0x2000071c        0x0 load address 0x0000fc10
 .tm_clone_table
                0x2000071c        0x0 i:/mcu/gnu_tools_for_arm/11.3_rel1/bin/../lib/gcc/arm-none-eabi/11.3.1/thumb/v7e-m+fp/hard/crtbegin.o
 .tm_clone_table
                0x2000071c        0x0 i:/mcu/gnu_tools_for_arm/11.3_rel1/bin/../lib/gcc/arm-none-eabi/11.3.1/thumb/v7e-m+fp/hard/crtend.o

.igot.plt       0x2000071c        0x0 load address 0x0000fc10
 .igot.plt      0x2000071c        0x0 i:/mcu/gnu_tools_for_arm/11.3_rel1/bin/../lib/gcc/arm-none-eabi/11.3.1/thumb/v7e-m+fp/hard/crtbegin.o

vtable          0x20000800       0xe8 load address 0x0000fc10
 vtable         0x20000800       0xe8 build/interrupt.o

.bss            0x20000900      0x548
                0x20000900                __bss_start__ = .
 *(.shbss)
 *(.bss)
 .bss           0x20000900        0x0 i:/mcu/gnu_tools_for_arm/11.3_rel1/bin/../lib/gcc/arm-none-eabi/11.3.1/thumb/v7e-m+fp/hard/crti.o
 .bss           0x20000900        0x0 i:/mcu/gnu_tools_for_arm/11.3_rel1/bin/../lib/gcc/arm-none-eabi/11.3.1/thumb/v7e-m+fp/hard/crtbegin.o
 .bss           0x20000900        0x0 i:/mcu/gnu_tools_for_arm/11.3_rel1/bin/../lib/gcc/arm-none-eabi/11.3.1/thumb/v7e-m+fp/hard/crt0.o
 .bss           0x20000900        0x0 build/main.o
 .bss           0x20000900        0x0 build/cpu.o
 .bss           0x20000900        0x8 build/cs.o
 .bss           0x20000908        0x0 build/flash.o
 .bss           0x20000908        0x0 build/fpu.o
 .bss           0x20000908        0x0 build/gpio.o
 .bss           0x20000908        0x0 build/interrupt.o
 .bss           0x20000908        0x0 build/mpu.o
 .bss           0x20000908        0x0 build/pcm.o
 .bss           0x20000908        0x0 build/pss.o
 .bss           0x20000908        0x0 build/ref_a.o
 .bss           0x20000908        0x0 build/reset.o
 .bss           0x20000908        0x0 build/rtc_c.o
 .bss           0x20000908        0x0 build/sysctl.o
 .bss           0x20000908        0x0 build/systick.o
 .bss           0x20000908        0x0 build/uart.o
 .bss           0x20000908        0x0 build/wdt_a.o
 .bss           0x20000908        0x0 build/startup_msp432p401r_gcc.o
 .bss           0x20000908        0x0 build/system_msp432p401r.o
 .bss           0x20000908        0x0 build/user_periph.o
 .bss           0x20000908        0x4 build/syscalls.o
                0x20000908                __env
 .bss           0x2000090c       0x18 build/user_uart.o
 *fill*         0x20000924       0xdc 
 .bss           0x20000a00      0x100 build/user_dma.o
                0x20000a00                data_control_structure
 .bss           0x20000b00       0x14 build/iic_bus.o
                0x20000b00                user_iic
 .bss           0x20000b14        0x0 i:/mcu/gnu_tools_for_arm/11.3_rel1/bin/../lib/gcc/arm-none-eabi/11.3.1/thumb/v7e-m+fp/hard\libc.a(libc_a-exit.o)
 .bss           0x20000b14        0x0 i:/mcu/gnu_tools_for_arm/11.3_rel1/bin/../lib/gcc/arm-none-eabi/11.3.1/thumb/v7e-m+fp/hard\libc.a(libc_a-findfp.o)
 .bss           0x20000b14        0x0 i:/mcu/gnu_tools_for_arm/11.3_rel1/bin/../lib/gcc/arm-none-eabi/11.3.1/thumb/v7e-m+fp/hard\libc.a(libc_a-fwalk.o)
 .bss           0x20000b14        0x0 i:/mcu/gnu_tools_for_arm/11.3_rel1/bin/../lib/gcc/arm-none-eabi/11.3.1/thumb/v7e-m+fp/hard\libc.a(libc_a-sprintf.o)
 .bss           0x20000b14        0x0 i:/mcu/gnu_tools_for_arm/11.3_rel1/bin/../lib/gcc/arm-none-eabi/11.3.1/thumb/v7e-m+fp/hard\libc.a(libc_a-stdio.o)
 .bss           0x20000b14        0x0 i:/mcu/gnu_tools_for_arm/11.3_rel1/bin/../lib/gcc/arm-none-eabi/11.3.1/thumb/v7e-m+fp/hard\libc.a(libc_a-memset.o)
 .bss           0x20000b14        0x0 i:/mcu/gnu_tools_for_arm/11.3_rel1/bin/../lib/gcc/arm-none-eabi/11.3.1/thumb/v7e-m+fp/hard\libc.a(libc_a-closer.o)
 .bss           0x20000b14        0x0 i:/mcu/gnu_tools_for_arm/11.3_rel1/bin/../lib/gcc/arm-none-eabi/11.3.1/thumb/v7e-m+fp/hard\libc.a(libc_a-reent.o)
 .bss           0x20000b14        0x0 i:/mcu/gnu_tools_for_arm/11.3_rel1/bin/../lib/gcc/arm-none-eabi/11.3.1/thumb/v7e-m+fp/hard\libc.a(libc_a-impure.o)
 .bss           0x20000b14        0x0 i:/mcu/gnu_tools_for_arm/11.3_rel1/bin/../lib/gcc/arm-none-eabi/11.3.1/thumb/v7e-m+fp/hard\libc.a(libc_a-lseekr.o)
 .bss           0x20000b14        0x0 i:/mcu/gnu_tools_for_arm/11.3_rel1/bin/../lib/gcc/arm-none-eabi/11.3.1/thumb/v7e-m+fp/hard\libc.a(libc_a-readr.o)
 .bss           0x20000b14        0x0 i:/mcu/gnu_tools_for_arm/11.3_rel1/bin/../lib/gcc/arm-none-eabi/11.3.1/thumb/v7e-m+fp/hard\libc.a(libc_a-writer.o)
 .bss           0x20000b14        0x0 i:/mcu/gnu_tools_for_arm/11.3_rel1/bin/../lib/gcc/arm-none-eabi/11.3.1/thumb/v7e-m+fp/hard\libc.a(libc_a-errno.o)
 .bss           0x20000b14        0x0 i:/mcu/gnu_tools_for_arm/11.3_rel1/bin/../lib/gcc/arm-none-eabi/11.3.1/thumb/v7e-m+fp/hard\libc.a(libc_a-init.o)
 .bss           0x20000b14        0x0 i:/mcu/gnu_tools_for_arm/11.3_rel1/bin/../lib/gcc/arm-none-eabi/11.3.1/thumb/v7e-m+fp/hard\libc.a(libc_a-lock.o)
 .bss           0x20000b14        0x0 i:/mcu/gnu_tools_for_arm/11.3_rel1/bin/../lib/gcc/arm-none-eabi/11.3.1/thumb/v7e-m+fp/hard\libc.a(libc_a-__call_atexit.o)
 .bss           0x20000b14        0x0 i:/mcu/gnu_tools_for_arm/11.3_rel1/bin/../lib/gcc/arm-none-eabi/11.3.1/thumb/v7e-m+fp/hard\libc.a(libc_a-atexit.o)
 .bss           0x20000b14        0x0 i:/mcu/gnu_tools_for_arm/11.3_rel1/bin/../lib/gcc/arm-none-eabi/11.3.1/thumb/v7e-m+fp/hard\libc.a(libc_a-freer.o)
 .bss           0x20000b14        0x0 i:/mcu/gnu_tools_for_arm/11.3_rel1/bin/../lib/gcc/arm-none-eabi/11.3.1/thumb/v7e-m+fp/hard\libc.a(libc_a-mallocr.o)
 .bss           0x20000b14        0x0 i:/mcu/gnu_tools_for_arm/11.3_rel1/bin/../lib/gcc/arm-none-eabi/11.3.1/thumb/v7e-m+fp/hard\libc.a(libc_a-mlock.o)
 .bss           0x20000b14        0x0 i:/mcu/gnu_tools_for_arm/11.3_rel1/bin/../lib/gcc/arm-none-eabi/11.3.1/thumb/v7e-m+fp/hard\libc.a(libc_a-svfprintf.o)
 .bss           0x20000b14        0x0 i:/mcu/gnu_tools_for_arm/11.3_rel1/bin/../lib/gcc/arm-none-eabi/11.3.1/thumb/v7e-m+fp/hard\libc.a(libc_a-fclose.o)
 .bss           0x20000b14        0x0 i:/mcu/gnu_tools_for_arm/11.3_rel1/bin/../lib/gcc/arm-none-eabi/11.3.1/thumb/v7e-m+fp/hard\libc.a(libc_a-fflush.o)
 .bss           0x20000b14        0x0 i:/mcu/gnu_tools_for_arm/11.3_rel1/bin/../lib/gcc/arm-none-eabi/11.3.1/thumb/v7e-m+fp/hard\libc.a(libc_a-strncpy.o)
 .bss           0x20000b14        0x0 i:/mcu/gnu_tools_for_arm/11.3_rel1/bin/../lib/gcc/arm-none-eabi/11.3.1/thumb/v7e-m+fp/hard\libc.a(libc_a-locale.o)
 .bss           0x20000b14        0x0 i:/mcu/gnu_tools_for_arm/11.3_rel1/bin/../lib/gcc/arm-none-eabi/11.3.1/thumb/v7e-m+fp/hard\libc.a(libc_a-localeconv.o)
 .bss           0x20000b14        0x0 i:/mcu/gnu_tools_for_arm/11.3_rel1/bin/../lib/gcc/arm-none-eabi/11.3.1/thumb/v7e-m+fp/hard\libc.a(libc_a-sbrkr.o)
 .bss           0x20000b14        0x0 i:/mcu/gnu_tools_for_arm/11.3_rel1/bin/../lib/gcc/arm-none-eabi/11.3.1/thumb/v7e-m+fp/hard\libc.a(libc_a-fini.o)
 .bss           0x20000b14        0x0 i:/mcu/gnu_tools_for_arm/11.3_rel1/bin/../lib/gcc/arm-none-eabi/11.3.1/thumb/v7e-m+fp/hard\libc.a(libc_a-strcmp.o)
 .bss           0x20000b14        0x0 i:/mcu/gnu_tools_for_arm/11.3_rel1/bin/../lib/gcc/arm-none-eabi/11.3.1/thumb/v7e-m+fp/hard\libc.a(libc_a-strcpy.o)
 .bss           0x20000b14        0x0 i:/mcu/gnu_tools_for_arm/11.3_rel1/bin/../lib/gcc/arm-none-eabi/11.3.1/thumb/v7e-m+fp/hard\libc.a(libc_a-memchr.o)
 .bss           0x20000b14        0x0 i:/mcu/gnu_tools_for_arm/11.3_rel1/bin/../lib/gcc/arm-none-eabi/11.3.1/thumb/v7e-m+fp/hard\libc.a(libc_a-strlen.o)
 .bss           0x20000b14        0x0 i:/mcu/gnu_tools_for_arm/11.3_rel1/bin/../lib/gcc/arm-none-eabi/11.3.1/thumb/v7e-m+fp/hard\libc.a(libm_a-s_frexp.o)
 .bss           0x20000b14        0x0 i:/mcu/gnu_tools_for_arm/11.3_rel1/bin/../lib/gcc/arm-none-eabi/11.3.1/thumb/v7e-m+fp/hard\libc.a(libc_a-__atexit.o)
 .bss           0x20000b14        0x0 i:/mcu/gnu_tools_for_arm/11.3_rel1/bin/../lib/gcc/arm-none-eabi/11.3.1/thumb/v7e-m+fp/hard\libc.a(libc_a-dtoa.o)
 .bss           0x20000b14        0x0 i:/mcu/gnu_tools_for_arm/11.3_rel1/bin/../lib/gcc/arm-none-eabi/11.3.1/thumb/v7e-m+fp/hard\libc.a(libc_a-getenv_r.o)
 .bss           0x20000b14        0x0 i:/mcu/gnu_tools_for_arm/11.3_rel1/bin/../lib/gcc/arm-none-eabi/11.3.1/thumb/v7e-m+fp/hard\libc.a(libc_a-mbtowc_r.o)
 .bss           0x20000b14        0x0 i:/mcu/gnu_tools_for_arm/11.3_rel1/bin/../lib/gcc/arm-none-eabi/11.3.1/thumb/v7e-m+fp/hard\libc.a(libc_a-mprec.o)
 .bss           0x20000b14        0x0 i:/mcu/gnu_tools_for_arm/11.3_rel1/bin/../lib/gcc/arm-none-eabi/11.3.1/thumb/v7e-m+fp/hard\libc.a(libc_a-strtol.o)
 .bss           0x20000b14        0x0 i:/mcu/gnu_tools_for_arm/11.3_rel1/bin/../lib/gcc/arm-none-eabi/11.3.1/thumb/v7e-m+fp/hard\libc.a(libc_a-wctomb_r.o)
 .bss           0x20000b14        0x0 i:/mcu/gnu_tools_for_arm/11.3_rel1/bin/../lib/gcc/arm-none-eabi/11.3.1/thumb/v7e-m+fp/hard\libc.a(libc_a-wcrtomb.o)
 .bss           0x20000b14        0x0 i:/mcu/gnu_tools_for_arm/11.3_rel1/bin/../lib/gcc/arm-none-eabi/11.3.1/thumb/v7e-m+fp/hard\libc.a(libc_a-wcsrtombs.o)
 .bss           0x20000b14        0x0 i:/mcu/gnu_tools_for_arm/11.3_rel1/bin/../lib/gcc/arm-none-eabi/11.3.1/thumb/v7e-m+fp/hard\libc.a(libc_a-ctype_.o)
 .bss           0x20000b14        0x0 i:/mcu/gnu_tools_for_arm/11.3_rel1/bin/../lib/gcc/arm-none-eabi/11.3.1/thumb/v7e-m+fp/hard\libc.a(libc_a-svfiprintf.o)
 .bss           0x20000b14        0x0 i:/mcu/gnu_tools_for_arm/11.3_rel1/bin/../lib/gcc/arm-none-eabi/11.3.1/thumb/v7e-m+fp/hard\libc.a(libc_a-memmove.o)
 .bss           0x20000b14        0x0 i:/mcu/gnu_tools_for_arm/11.3_rel1/bin/../lib/gcc/arm-none-eabi/11.3.1/thumb/v7e-m+fp/hard\libc.a(libc_a-strcasecmp.o)
 .bss           0x20000b14        0x0 i:/mcu/gnu_tools_for_arm/11.3_rel1/bin/../lib/gcc/arm-none-eabi/11.3.1/thumb/v7e-m+fp/hard\libc.a(libc_a-strcat.o)
 .bss           0x20000b14        0x0 i:/mcu/gnu_tools_for_arm/11.3_rel1/bin/../lib/gcc/arm-none-eabi/11.3.1/thumb/v7e-m+fp/hard\libc.a(libc_a-strchr.o)
 .bss           0x20000b14        0x0 i:/mcu/gnu_tools_for_arm/11.3_rel1/bin/../lib/gcc/arm-none-eabi/11.3.1/thumb/v7e-m+fp/hard\libc.a(libc_a-strlcpy.o)
 .bss           0x20000b14        0x0 i:/mcu/gnu_tools_for_arm/11.3_rel1/bin/../lib/gcc/arm-none-eabi/11.3.1/thumb/v7e-m+fp/hard\libc.a(libc_a-strncasecmp.o)
 .bss           0x20000b14        0x0 i:/mcu/gnu_tools_for_arm/11.3_rel1/bin/../lib/gcc/arm-none-eabi/11.3.1/thumb/v7e-m+fp/hard\libc.a(libc_a-strncmp.o)
 .bss           0x20000b14        0x0 i:/mcu/gnu_tools_for_arm/11.3_rel1/bin/../lib/gcc/arm-none-eabi/11.3.1/thumb/v7e-m+fp/hard\libc.a(libc_a-memcpy.o)
 .bss           0x20000b14        0x0 i:/mcu/gnu_tools_for_arm/11.3_rel1/bin/../lib/gcc/arm-none-eabi/11.3.1/thumb/v7e-m+fp/hard\libc.a(libc_a-assert.o)
 .bss           0x20000b14        0x0 i:/mcu/gnu_tools_for_arm/11.3_rel1/bin/../lib/gcc/arm-none-eabi/11.3.1/thumb/v7e-m+fp/hard\libc.a(libc_a-callocr.o)
 .bss           0x20000b14        0x0 i:/mcu/gnu_tools_for_arm/11.3_rel1/bin/../lib/gcc/arm-none-eabi/11.3.1/thumb/v7e-m+fp/hard\libc.a(libc_a-envlock.o)
 .bss           0x20000b14        0x0 i:/mcu/gnu_tools_for_arm/11.3_rel1/bin/../lib/gcc/arm-none-eabi/11.3.1/thumb/v7e-m+fp/hard\libc.a(libc_a-reallocr.o)
 .bss           0x20000b14        0x0 i:/mcu/gnu_tools_for_arm/11.3_rel1/bin/../lib/gcc/arm-none-eabi/11.3.1/thumb/v7e-m+fp/hard\libc.a(libc_a-wcsnrtombs.o)
 .bss           0x20000b14        0x0 i:/mcu/gnu_tools_for_arm/11.3_rel1/bin/../lib/gcc/arm-none-eabi/11.3.1/thumb/v7e-m+fp/hard\libc.a(libc_a-fiprintf.o)
 .bss           0x20000b14        0x0 i:/mcu/gnu_tools_for_arm/11.3_rel1/bin/../lib/gcc/arm-none-eabi/11.3.1/thumb/v7e-m+fp/hard\libc.a(libc_a-vfiprintf.o)
 .bss           0x20000b14        0x0 i:/mcu/gnu_tools_for_arm/11.3_rel1/bin/../lib/gcc/arm-none-eabi/11.3.1/thumb/v7e-m+fp/hard\libc.a(libc_a-fvwrite.o)
 .bss           0x20000b14        0x0 i:/mcu/gnu_tools_for_arm/11.3_rel1/bin/../lib/gcc/arm-none-eabi/11.3.1/thumb/v7e-m+fp/hard\libc.a(libc_a-wsetup.o)
 .bss           0x20000b14        0x0 i:/mcu/gnu_tools_for_arm/11.3_rel1/bin/../lib/gcc/arm-none-eabi/11.3.1/thumb/v7e-m+fp/hard\libc.a(libc_a-fputwc.o)
 .bss           0x20000b14        0x0 i:/mcu/gnu_tools_for_arm/11.3_rel1/bin/../lib/gcc/arm-none-eabi/11.3.1/thumb/v7e-m+fp/hard\libc.a(libc_a-abort.o)
 .bss           0x20000b14        0x0 i:/mcu/gnu_tools_for_arm/11.3_rel1/bin/../lib/gcc/arm-none-eabi/11.3.1/thumb/v7e-m+fp/hard\libc.a(libc_a-makebuf.o)
 .bss           0x20000b14        0x0 i:/mcu/gnu_tools_for_arm/11.3_rel1/bin/../lib/gcc/arm-none-eabi/11.3.1/thumb/v7e-m+fp/hard\libc.a(libc_a-wbuf.o)
 .bss           0x20000b14        0x0 i:/mcu/gnu_tools_for_arm/11.3_rel1/bin/../lib/gcc/arm-none-eabi/11.3.1/thumb/v7e-m+fp/hard\libc.a(libc_a-signal.o)
 .bss           0x20000b14        0x0 i:/mcu/gnu_tools_for_arm/11.3_rel1/bin/../lib/gcc/arm-none-eabi/11.3.1/thumb/v7e-m+fp/hard\libc.a(libc_a-fstatr.o)
 .bss           0x20000b14        0x0 i:/mcu/gnu_tools_for_arm/11.3_rel1/bin/../lib/gcc/arm-none-eabi/11.3.1/thumb/v7e-m+fp/hard\libc.a(libc_a-isattyr.o)
 .bss           0x20000b14        0x0 i:/mcu/gnu_tools_for_arm/11.3_rel1/bin/../lib/gcc/arm-none-eabi/11.3.1/thumb/v7e-m+fp/hard\libc.a(libc_a-signalr.o)
 .bss           0x20000b14        0x0 i:/mcu/gnu_tools_for_arm/11.3_rel1/bin/../lib/gcc/arm-none-eabi/11.3.1/thumb/v7e-m+fp/hard\libnosys.a(sbrk.o)
 .bss           0x20000b14        0x0 i:/mcu/gnu_tools_for_arm/11.3_rel1/bin/../lib/gcc/arm-none-eabi/11.3.1/thumb/v7e-m+fp/hard\libgcc.a(_arm_muldf3.o)
 .bss           0x20000b14        0x0 i:/mcu/gnu_tools_for_arm/11.3_rel1/bin/../lib/gcc/arm-none-eabi/11.3.1/thumb/v7e-m+fp/hard\libgcc.a(_arm_addsubdf3.o)
 .bss           0x20000b14        0x0 i:/mcu/gnu_tools_for_arm/11.3_rel1/bin/../lib/gcc/arm-none-eabi/11.3.1/thumb/v7e-m+fp/hard\libgcc.a(_arm_muldivdf3.o)
 .bss           0x20000b14        0x0 i:/mcu/gnu_tools_for_arm/11.3_rel1/bin/../lib/gcc/arm-none-eabi/11.3.1/thumb/v7e-m+fp/hard\libgcc.a(_arm_cmpdf2.o)
 .bss           0x20000b14        0x0 i:/mcu/gnu_tools_for_arm/11.3_rel1/bin/../lib/gcc/arm-none-eabi/11.3.1/thumb/v7e-m+fp/hard\libgcc.a(_arm_unorddf2.o)
 .bss           0x20000b14        0x0 i:/mcu/gnu_tools_for_arm/11.3_rel1/bin/../lib/gcc/arm-none-eabi/11.3.1/thumb/v7e-m+fp/hard\libgcc.a(_arm_fixdfsi.o)
 .bss           0x20000b14        0x0 i:/mcu/gnu_tools_for_arm/11.3_rel1/bin/../lib/gcc/arm-none-eabi/11.3.1/thumb/v7e-m+fp/hard/crtend.o
 .bss           0x20000b14        0x0 i:/mcu/gnu_tools_for_arm/11.3_rel1/bin/../lib/gcc/arm-none-eabi/11.3.1/thumb/v7e-m+fp/hard/crtn.o
 *(.bss.*)
 .bss.completed.1
                0x20000b14        0x1 i:/mcu/gnu_tools_for_arm/11.3_rel1/bin/../lib/gcc/arm-none-eabi/11.3.1/thumb/v7e-m+fp/hard/crtbegin.o
 *fill*         0x20000b15        0x3 
 .bss.object.0  0x20000b18       0x18 i:/mcu/gnu_tools_for_arm/11.3_rel1/bin/../lib/gcc/arm-none-eabi/11.3.1/thumb/v7e-m+fp/hard/crtbegin.o
 .bss.__sf      0x20000b30      0x138 i:/mcu/gnu_tools_for_arm/11.3_rel1/bin/../lib/gcc/arm-none-eabi/11.3.1/thumb/v7e-m+fp/hard\libc.a(libc_a-findfp.o)
                0x20000b30                __sf
 .bss.__stdio_exit_handler
                0x20000c68        0x4 i:/mcu/gnu_tools_for_arm/11.3_rel1/bin/../lib/gcc/arm-none-eabi/11.3.1/thumb/v7e-m+fp/hard\libc.a(libc_a-findfp.o)
                0x20000c68                __stdio_exit_handler
 .bss.errno     0x20000c6c        0x4 i:/mcu/gnu_tools_for_arm/11.3_rel1/bin/../lib/gcc/arm-none-eabi/11.3.1/thumb/v7e-m+fp/hard\libc.a(libc_a-reent.o)
                0x20000c6c                errno
 .bss.__lock___atexit_recursive_mutex
                0x20000c70        0x1 i:/mcu/gnu_tools_for_arm/11.3_rel1/bin/../lib/gcc/arm-none-eabi/11.3.1/thumb/v7e-m+fp/hard\libc.a(libc_a-lock.o)
                0x20000c70                __lock___atexit_recursive_mutex
 *fill*         0x20000c71        0x3 
 .bss.__lock___malloc_recursive_mutex
                0x20000c74        0x1 i:/mcu/gnu_tools_for_arm/11.3_rel1/bin/../lib/gcc/arm-none-eabi/11.3.1/thumb/v7e-m+fp/hard\libc.a(libc_a-lock.o)
                0x20000c74                __lock___malloc_recursive_mutex
 *fill*         0x20000c75        0x3 
 .bss.__lock___sfp_recursive_mutex
                0x20000c78        0x1 i:/mcu/gnu_tools_for_arm/11.3_rel1/bin/../lib/gcc/arm-none-eabi/11.3.1/thumb/v7e-m+fp/hard\libc.a(libc_a-lock.o)
                0x20000c78                __lock___sfp_recursive_mutex
 *fill*         0x20000c79        0x3 
 .bss.__atexit  0x20000c7c        0x4 i:/mcu/gnu_tools_for_arm/11.3_rel1/bin/../lib/gcc/arm-none-eabi/11.3.1/thumb/v7e-m+fp/hard\libc.a(libc_a-__call_atexit.o)
                0x20000c7c                __atexit
 .bss.__malloc_current_mallinfo
                0x20000c80       0x28 i:/mcu/gnu_tools_for_arm/11.3_rel1/bin/../lib/gcc/arm-none-eabi/11.3.1/thumb/v7e-m+fp/hard\libc.a(libc_a-mallocr.o)
                0x20000c80                __malloc_current_mallinfo
 .bss.__malloc_max_sbrked_mem
                0x20000ca8        0x4 i:/mcu/gnu_tools_for_arm/11.3_rel1/bin/../lib/gcc/arm-none-eabi/11.3.1/thumb/v7e-m+fp/hard\libc.a(libc_a-mallocr.o)
                0x20000ca8                __malloc_max_sbrked_mem
 .bss.__malloc_max_total_mem
                0x20000cac        0x4 i:/mcu/gnu_tools_for_arm/11.3_rel1/bin/../lib/gcc/arm-none-eabi/11.3.1/thumb/v7e-m+fp/hard\libc.a(libc_a-mallocr.o)
                0x20000cac                __malloc_max_total_mem
 .bss.__malloc_top_pad
                0x20000cb0        0x4 i:/mcu/gnu_tools_for_arm/11.3_rel1/bin/../lib/gcc/arm-none-eabi/11.3.1/thumb/v7e-m+fp/hard\libc.a(libc_a-mallocr.o)
                0x20000cb0                __malloc_top_pad
 .bss.__atexit0
                0x20000cb4      0x190 i:/mcu/gnu_tools_for_arm/11.3_rel1/bin/../lib/gcc/arm-none-eabi/11.3.1/thumb/v7e-m+fp/hard\libc.a(libc_a-__atexit.o)
                0x20000cb4                __atexit0
 .bss.heap_end.0
                0x20000e44        0x4 i:/mcu/gnu_tools_for_arm/11.3_rel1/bin/../lib/gcc/arm-none-eabi/11.3.1/thumb/v7e-m+fp/hard\libnosys.a(sbrk.o)
 *(COMMON)
                0x20000e48                . = ALIGN (0x4)
                0x20000e48                __bss_end__ = .

.heap           0x20000e48        0x0
                0x20000e48                __heap_start__ = .
                0x20000e48                end = __heap_start__
                0x20000e48                _end = end
                0x20000e48                __end = end
 *(.heap)
                0x20000e48                __heap_end__ = .
                0x20000e48                __HeapLimit = __heap_end__

.stack          0x20000e48        0x0
                0x20000e48                _stack = .
 *(.stack)
                0x20010000                __StackTop = (ORIGIN (REGION_STACK) + LENGTH (REGION_STACK))
                0x20010000                PROVIDE (__stack = __StackTop)
OUTPUT(build/mpu6050_C.elf elf32-littlearm)
LOAD linker stubs

.ARM.attributes
                0x00000000       0x30
 .ARM.attributes
                0x00000000       0x1e i:/mcu/gnu_tools_for_arm/11.3_rel1/bin/../lib/gcc/arm-none-eabi/11.3.1/thumb/v7e-m+fp/hard/crti.o
 .ARM.attributes
                0x0000001e       0x34 i:/mcu/gnu_tools_for_arm/11.3_rel1/bin/../lib/gcc/arm-none-eabi/11.3.1/thumb/v7e-m+fp/hard/crtbegin.o
 .ARM.attributes
                0x00000052       0x1c i:/mcu/gnu_tools_for_arm/11.3_rel1/bin/../lib/gcc/arm-none-eabi/11.3.1/thumb/v7e-m+fp/hard/crt0.o
 .ARM.attributes
                0x0000006e       0x34 build/main.o
 .ARM.attributes
                0x000000a2       0x34 build/cpu.o
 .ARM.attributes
                0x000000d6       0x34 build/cs.o
 .ARM.attributes
                0x0000010a       0x34 build/flash.o
 .ARM.attributes
                0x0000013e       0x34 build/fpu.o
 .ARM.attributes
                0x00000172       0x34 build/gpio.o
 .ARM.attributes
                0x000001a6       0x34 build/interrupt.o
 .ARM.attributes
                0x000001da       0x34 build/mpu.o
 .ARM.attributes
                0x0000020e       0x34 build/pcm.o
 .ARM.attributes
                0x00000242       0x34 build/pss.o
 .ARM.attributes
                0x00000276       0x34 build/ref_a.o
 .ARM.attributes
                0x000002aa       0x34 build/reset.o
 .ARM.attributes
                0x000002de       0x34 build/rtc_c.o
 .ARM.attributes
                0x00000312       0x34 build/sysctl.o
 .ARM.attributes
                0x00000346       0x34 build/systick.o
 .ARM.attributes
                0x0000037a       0x34 build/uart.o
 .ARM.attributes
                0x000003ae       0x34 build/wdt_a.o
 .ARM.attributes
                0x000003e2       0x34 build/startup_msp432p401r_gcc.o
 .ARM.attributes
                0x00000416       0x34 build/system_msp432p401r.o
 .ARM.attributes
                0x0000044a       0x34 build/user_periph.o
 .ARM.attributes
                0x0000047e       0x34 build/syscalls.o
 .ARM.attributes
                0x000004b2       0x34 build/user_uart.o
 .ARM.attributes
                0x000004e6       0x34 build/user_dma.o
 .ARM.attributes
                0x0000051a       0x34 build/iic_bus.o
 .ARM.attributes
                0x0000054e       0x34 i:/mcu/gnu_tools_for_arm/11.3_rel1/bin/../lib/gcc/arm-none-eabi/11.3.1/thumb/v7e-m+fp/hard\libc.a(libc_a-exit.o)
 .ARM.attributes
                0x00000582       0x34 i:/mcu/gnu_tools_for_arm/11.3_rel1/bin/../lib/gcc/arm-none-eabi/11.3.1/thumb/v7e-m+fp/hard\libc.a(libc_a-findfp.o)
 .ARM.attributes
                0x000005b6       0x34 i:/mcu/gnu_tools_for_arm/11.3_rel1/bin/../lib/gcc/arm-none-eabi/11.3.1/thumb/v7e-m+fp/hard\libc.a(libc_a-fwalk.o)
 .ARM.attributes
                0x000005ea       0x34 i:/mcu/gnu_tools_for_arm/11.3_rel1/bin/../lib/gcc/arm-none-eabi/11.3.1/thumb/v7e-m+fp/hard\libc.a(libc_a-sprintf.o)
 .ARM.attributes
                0x0000061e       0x34 i:/mcu/gnu_tools_for_arm/11.3_rel1/bin/../lib/gcc/arm-none-eabi/11.3.1/thumb/v7e-m+fp/hard\libc.a(libc_a-stdio.o)
 .ARM.attributes
                0x00000652       0x34 i:/mcu/gnu_tools_for_arm/11.3_rel1/bin/../lib/gcc/arm-none-eabi/11.3.1/thumb/v7e-m+fp/hard\libc.a(libc_a-memset.o)
 .ARM.attributes
                0x00000686       0x34 i:/mcu/gnu_tools_for_arm/11.3_rel1/bin/../lib/gcc/arm-none-eabi/11.3.1/thumb/v7e-m+fp/hard\libc.a(libc_a-closer.o)
 .ARM.attributes
                0x000006ba       0x34 i:/mcu/gnu_tools_for_arm/11.3_rel1/bin/../lib/gcc/arm-none-eabi/11.3.1/thumb/v7e-m+fp/hard\libc.a(libc_a-reent.o)
 .ARM.attributes
                0x000006ee       0x34 i:/mcu/gnu_tools_for_arm/11.3_rel1/bin/../lib/gcc/arm-none-eabi/11.3.1/thumb/v7e-m+fp/hard\libc.a(libc_a-impure.o)
 .ARM.attributes
                0x00000722       0x34 i:/mcu/gnu_tools_for_arm/11.3_rel1/bin/../lib/gcc/arm-none-eabi/11.3.1/thumb/v7e-m+fp/hard\libc.a(libc_a-lseekr.o)
 .ARM.attributes
                0x00000756       0x34 i:/mcu/gnu_tools_for_arm/11.3_rel1/bin/../lib/gcc/arm-none-eabi/11.3.1/thumb/v7e-m+fp/hard\libc.a(libc_a-readr.o)
 .ARM.attributes
                0x0000078a       0x34 i:/mcu/gnu_tools_for_arm/11.3_rel1/bin/../lib/gcc/arm-none-eabi/11.3.1/thumb/v7e-m+fp/hard\libc.a(libc_a-writer.o)
 .ARM.attributes
                0x000007be       0x34 i:/mcu/gnu_tools_for_arm/11.3_rel1/bin/../lib/gcc/arm-none-eabi/11.3.1/thumb/v7e-m+fp/hard\libc.a(libc_a-errno.o)
 .ARM.attributes
                0x000007f2       0x34 i:/mcu/gnu_tools_for_arm/11.3_rel1/bin/../lib/gcc/arm-none-eabi/11.3.1/thumb/v7e-m+fp/hard\libc.a(libc_a-init.o)
 .ARM.attributes
                0x00000826       0x34 i:/mcu/gnu_tools_for_arm/11.3_rel1/bin/../lib/gcc/arm-none-eabi/11.3.1/thumb/v7e-m+fp/hard\libc.a(libc_a-lock.o)
 .ARM.attributes
                0x0000085a       0x34 i:/mcu/gnu_tools_for_arm/11.3_rel1/bin/../lib/gcc/arm-none-eabi/11.3.1/thumb/v7e-m+fp/hard\libc.a(libc_a-__call_atexit.o)
 .ARM.attributes
                0x0000088e       0x34 i:/mcu/gnu_tools_for_arm/11.3_rel1/bin/../lib/gcc/arm-none-eabi/11.3.1/thumb/v7e-m+fp/hard\libc.a(libc_a-atexit.o)
 .ARM.attributes
                0x000008c2       0x34 i:/mcu/gnu_tools_for_arm/11.3_rel1/bin/../lib/gcc/arm-none-eabi/11.3.1/thumb/v7e-m+fp/hard\libc.a(libc_a-freer.o)
 .ARM.attributes
                0x000008f6       0x34 i:/mcu/gnu_tools_for_arm/11.3_rel1/bin/../lib/gcc/arm-none-eabi/11.3.1/thumb/v7e-m+fp/hard\libc.a(libc_a-mallocr.o)
 .ARM.attributes
                0x0000092a       0x34 i:/mcu/gnu_tools_for_arm/11.3_rel1/bin/../lib/gcc/arm-none-eabi/11.3.1/thumb/v7e-m+fp/hard\libc.a(libc_a-mlock.o)
 .ARM.attributes
                0x0000095e       0x34 i:/mcu/gnu_tools_for_arm/11.3_rel1/bin/../lib/gcc/arm-none-eabi/11.3.1/thumb/v7e-m+fp/hard\libc.a(libc_a-svfprintf.o)
 .ARM.attributes
                0x00000992       0x34 i:/mcu/gnu_tools_for_arm/11.3_rel1/bin/../lib/gcc/arm-none-eabi/11.3.1/thumb/v7e-m+fp/hard\libc.a(libc_a-fclose.o)
 .ARM.attributes
                0x000009c6       0x34 i:/mcu/gnu_tools_for_arm/11.3_rel1/bin/../lib/gcc/arm-none-eabi/11.3.1/thumb/v7e-m+fp/hard\libc.a(libc_a-fflush.o)
 .ARM.attributes
                0x000009fa       0x34 i:/mcu/gnu_tools_for_arm/11.3_rel1/bin/../lib/gcc/arm-none-eabi/11.3.1/thumb/v7e-m+fp/hard\libc.a(libc_a-strncpy.o)
 .ARM.attributes
                0x00000a2e       0x34 i:/mcu/gnu_tools_for_arm/11.3_rel1/bin/../lib/gcc/arm-none-eabi/11.3.1/thumb/v7e-m+fp/hard\libc.a(libc_a-locale.o)
 .ARM.attributes
                0x00000a62       0x34 i:/mcu/gnu_tools_for_arm/11.3_rel1/bin/../lib/gcc/arm-none-eabi/11.3.1/thumb/v7e-m+fp/hard\libc.a(libc_a-localeconv.o)
 .ARM.attributes
                0x00000a96       0x34 i:/mcu/gnu_tools_for_arm/11.3_rel1/bin/../lib/gcc/arm-none-eabi/11.3.1/thumb/v7e-m+fp/hard\libc.a(libc_a-sbrkr.o)
 .ARM.attributes
                0x00000aca       0x34 i:/mcu/gnu_tools_for_arm/11.3_rel1/bin/../lib/gcc/arm-none-eabi/11.3.1/thumb/v7e-m+fp/hard\libc.a(libc_a-fini.o)
 .ARM.attributes
                0x00000afe       0x1c i:/mcu/gnu_tools_for_arm/11.3_rel1/bin/../lib/gcc/arm-none-eabi/11.3.1/thumb/v7e-m+fp/hard\libc.a(libc_a-strcmp.o)
 .ARM.attributes
                0x00000b1a       0x34 i:/mcu/gnu_tools_for_arm/11.3_rel1/bin/../lib/gcc/arm-none-eabi/11.3.1/thumb/v7e-m+fp/hard\libc.a(libc_a-strcpy.o)
 .ARM.attributes
                0x00000b4e       0x1c i:/mcu/gnu_tools_for_arm/11.3_rel1/bin/../lib/gcc/arm-none-eabi/11.3.1/thumb/v7e-m+fp/hard\libc.a(libc_a-memchr.o)
 .ARM.attributes
                0x00000b6a       0x1c i:/mcu/gnu_tools_for_arm/11.3_rel1/bin/../lib/gcc/arm-none-eabi/11.3.1/thumb/v7e-m+fp/hard\libc.a(libc_a-strlen.o)
 .ARM.attributes
                0x00000b86       0x34 i:/mcu/gnu_tools_for_arm/11.3_rel1/bin/../lib/gcc/arm-none-eabi/11.3.1/thumb/v7e-m+fp/hard\libc.a(libm_a-s_frexp.o)
 .ARM.attributes
                0x00000bba       0x34 i:/mcu/gnu_tools_for_arm/11.3_rel1/bin/../lib/gcc/arm-none-eabi/11.3.1/thumb/v7e-m+fp/hard\libc.a(libc_a-__atexit.o)
 .ARM.attributes
                0x00000bee       0x34 i:/mcu/gnu_tools_for_arm/11.3_rel1/bin/../lib/gcc/arm-none-eabi/11.3.1/thumb/v7e-m+fp/hard\libc.a(libc_a-dtoa.o)
 .ARM.attributes
                0x00000c22       0x34 i:/mcu/gnu_tools_for_arm/11.3_rel1/bin/../lib/gcc/arm-none-eabi/11.3.1/thumb/v7e-m+fp/hard\libc.a(libc_a-getenv_r.o)
 .ARM.attributes
                0x00000c56       0x34 i:/mcu/gnu_tools_for_arm/11.3_rel1/bin/../lib/gcc/arm-none-eabi/11.3.1/thumb/v7e-m+fp/hard\libc.a(libc_a-mbtowc_r.o)
 .ARM.attributes
                0x00000c8a       0x34 i:/mcu/gnu_tools_for_arm/11.3_rel1/bin/../lib/gcc/arm-none-eabi/11.3.1/thumb/v7e-m+fp/hard\libc.a(libc_a-mprec.o)
 .ARM.attributes
                0x00000cbe       0x34 i:/mcu/gnu_tools_for_arm/11.3_rel1/bin/../lib/gcc/arm-none-eabi/11.3.1/thumb/v7e-m+fp/hard\libc.a(libc_a-strtol.o)
 .ARM.attributes
                0x00000cf2       0x34 i:/mcu/gnu_tools_for_arm/11.3_rel1/bin/../lib/gcc/arm-none-eabi/11.3.1/thumb/v7e-m+fp/hard\libc.a(libc_a-wctomb_r.o)
 .ARM.attributes
                0x00000d26       0x34 i:/mcu/gnu_tools_for_arm/11.3_rel1/bin/../lib/gcc/arm-none-eabi/11.3.1/thumb/v7e-m+fp/hard\libc.a(libc_a-wcrtomb.o)
 .ARM.attributes
                0x00000d5a       0x34 i:/mcu/gnu_tools_for_arm/11.3_rel1/bin/../lib/gcc/arm-none-eabi/11.3.1/thumb/v7e-m+fp/hard\libc.a(libc_a-wcsrtombs.o)
 .ARM.attributes
                0x00000d8e       0x34 i:/mcu/gnu_tools_for_arm/11.3_rel1/bin/../lib/gcc/arm-none-eabi/11.3.1/thumb/v7e-m+fp/hard\libc.a(libc_a-ctype_.o)
 .ARM.attributes
                0x00000dc2       0x34 i:/mcu/gnu_tools_for_arm/11.3_rel1/bin/../lib/gcc/arm-none-eabi/11.3.1/thumb/v7e-m+fp/hard\libc.a(libc_a-svfiprintf.o)
 .ARM.attributes
                0x00000df6       0x34 i:/mcu/gnu_tools_for_arm/11.3_rel1/bin/../lib/gcc/arm-none-eabi/11.3.1/thumb/v7e-m+fp/hard\libc.a(libc_a-memmove.o)
 .ARM.attributes
                0x00000e2a       0x34 i:/mcu/gnu_tools_for_arm/11.3_rel1/bin/../lib/gcc/arm-none-eabi/11.3.1/thumb/v7e-m+fp/hard\libc.a(libc_a-strcasecmp.o)
 .ARM.attributes
                0x00000e5e       0x34 i:/mcu/gnu_tools_for_arm/11.3_rel1/bin/../lib/gcc/arm-none-eabi/11.3.1/thumb/v7e-m+fp/hard\libc.a(libc_a-strcat.o)
 .ARM.attributes
                0x00000e92       0x34 i:/mcu/gnu_tools_for_arm/11.3_rel1/bin/../lib/gcc/arm-none-eabi/11.3.1/thumb/v7e-m+fp/hard\libc.a(libc_a-strchr.o)
 .ARM.attributes
                0x00000ec6       0x34 i:/mcu/gnu_tools_for_arm/11.3_rel1/bin/../lib/gcc/arm-none-eabi/11.3.1/thumb/v7e-m+fp/hard\libc.a(libc_a-strlcpy.o)
 .ARM.attributes
                0x00000efa       0x34 i:/mcu/gnu_tools_for_arm/11.3_rel1/bin/../lib/gcc/arm-none-eabi/11.3.1/thumb/v7e-m+fp/hard\libc.a(libc_a-strncasecmp.o)
 .ARM.attributes
                0x00000f2e       0x34 i:/mcu/gnu_tools_for_arm/11.3_rel1/bin/../lib/gcc/arm-none-eabi/11.3.1/thumb/v7e-m+fp/hard\libc.a(libc_a-strncmp.o)
 .ARM.attributes
                0x00000f62       0x1c i:/mcu/gnu_tools_for_arm/11.3_rel1/bin/../lib/gcc/arm-none-eabi/11.3.1/thumb/v7e-m+fp/hard\libc.a(libc_a-memcpy.o)
 .ARM.attributes
                0x00000f7e       0x34 i:/mcu/gnu_tools_for_arm/11.3_rel1/bin/../lib/gcc/arm-none-eabi/11.3.1/thumb/v7e-m+fp/hard\libc.a(libc_a-assert.o)
 .ARM.attributes
                0x00000fb2       0x34 i:/mcu/gnu_tools_for_arm/11.3_rel1/bin/../lib/gcc/arm-none-eabi/11.3.1/thumb/v7e-m+fp/hard\libc.a(libc_a-callocr.o)
 .ARM.attributes
                0x00000fe6       0x34 i:/mcu/gnu_tools_for_arm/11.3_rel1/bin/../lib/gcc/arm-none-eabi/11.3.1/thumb/v7e-m+fp/hard\libc.a(libc_a-envlock.o)
 .ARM.attributes
                0x0000101a       0x34 i:/mcu/gnu_tools_for_arm/11.3_rel1/bin/../lib/gcc/arm-none-eabi/11.3.1/thumb/v7e-m+fp/hard\libc.a(libc_a-reallocr.o)
 .ARM.attributes
                0x0000104e       0x34 i:/mcu/gnu_tools_for_arm/11.3_rel1/bin/../lib/gcc/arm-none-eabi/11.3.1/thumb/v7e-m+fp/hard\libc.a(libc_a-wcsnrtombs.o)
 .ARM.attributes
                0x00001082       0x34 i:/mcu/gnu_tools_for_arm/11.3_rel1/bin/../lib/gcc/arm-none-eabi/11.3.1/thumb/v7e-m+fp/hard\libc.a(libc_a-fiprintf.o)
 .ARM.attributes
                0x000010b6       0x34 i:/mcu/gnu_tools_for_arm/11.3_rel1/bin/../lib/gcc/arm-none-eabi/11.3.1/thumb/v7e-m+fp/hard\libc.a(libc_a-vfiprintf.o)
 .ARM.attributes
                0x000010ea       0x34 i:/mcu/gnu_tools_for_arm/11.3_rel1/bin/../lib/gcc/arm-none-eabi/11.3.1/thumb/v7e-m+fp/hard\libc.a(libc_a-fvwrite.o)
 .ARM.attributes
                0x0000111e       0x34 i:/mcu/gnu_tools_for_arm/11.3_rel1/bin/../lib/gcc/arm-none-eabi/11.3.1/thumb/v7e-m+fp/hard\libc.a(libc_a-wsetup.o)
 .ARM.attributes
                0x00001152       0x34 i:/mcu/gnu_tools_for_arm/11.3_rel1/bin/../lib/gcc/arm-none-eabi/11.3.1/thumb/v7e-m+fp/hard\libc.a(libc_a-fputwc.o)
 .ARM.attributes
                0x00001186       0x34 i:/mcu/gnu_tools_for_arm/11.3_rel1/bin/../lib/gcc/arm-none-eabi/11.3.1/thumb/v7e-m+fp/hard\libc.a(libc_a-abort.o)
 .ARM.attributes
                0x000011ba       0x34 i:/mcu/gnu_tools_for_arm/11.3_rel1/bin/../lib/gcc/arm-none-eabi/11.3.1/thumb/v7e-m+fp/hard\libc.a(libc_a-makebuf.o)
 .ARM.attributes
                0x000011ee       0x34 i:/mcu/gnu_tools_for_arm/11.3_rel1/bin/../lib/gcc/arm-none-eabi/11.3.1/thumb/v7e-m+fp/hard\libc.a(libc_a-wbuf.o)
 .ARM.attributes
                0x00001222       0x34 i:/mcu/gnu_tools_for_arm/11.3_rel1/bin/../lib/gcc/arm-none-eabi/11.3.1/thumb/v7e-m+fp/hard\libc.a(libc_a-signal.o)
 .ARM.attributes
                0x00001256       0x34 i:/mcu/gnu_tools_for_arm/11.3_rel1/bin/../lib/gcc/arm-none-eabi/11.3.1/thumb/v7e-m+fp/hard\libc.a(libc_a-fstatr.o)
 .ARM.attributes
                0x0000128a       0x34 i:/mcu/gnu_tools_for_arm/11.3_rel1/bin/../lib/gcc/arm-none-eabi/11.3.1/thumb/v7e-m+fp/hard\libc.a(libc_a-isattyr.o)
 .ARM.attributes
                0x000012be       0x34 i:/mcu/gnu_tools_for_arm/11.3_rel1/bin/../lib/gcc/arm-none-eabi/11.3.1/thumb/v7e-m+fp/hard\libc.a(libc_a-signalr.o)
 .ARM.attributes
                0x000012f2       0x34 i:/mcu/gnu_tools_for_arm/11.3_rel1/bin/../lib/gcc/arm-none-eabi/11.3.1/thumb/v7e-m+fp/hard\libnosys.a(sbrk.o)
 .ARM.attributes
                0x00001326       0x1e i:/mcu/gnu_tools_for_arm/11.3_rel1/bin/../lib/gcc/arm-none-eabi/11.3.1/thumb/v7e-m+fp/hard\libgcc.a(_arm_muldf3.o)
 .ARM.attributes
                0x00001344       0x1e i:/mcu/gnu_tools_for_arm/11.3_rel1/bin/../lib/gcc/arm-none-eabi/11.3.1/thumb/v7e-m+fp/hard\libgcc.a(_arm_addsubdf3.o)
 .ARM.attributes
                0x00001362       0x1e i:/mcu/gnu_tools_for_arm/11.3_rel1/bin/../lib/gcc/arm-none-eabi/11.3.1/thumb/v7e-m+fp/hard\libgcc.a(_arm_muldivdf3.o)
 .ARM.attributes
                0x00001380       0x1e i:/mcu/gnu_tools_for_arm/11.3_rel1/bin/../lib/gcc/arm-none-eabi/11.3.1/thumb/v7e-m+fp/hard\libgcc.a(_arm_cmpdf2.o)
 .ARM.attributes
                0x0000139e       0x1e i:/mcu/gnu_tools_for_arm/11.3_rel1/bin/../lib/gcc/arm-none-eabi/11.3.1/thumb/v7e-m+fp/hard\libgcc.a(_arm_unorddf2.o)
 .ARM.attributes
                0x000013bc       0x1e i:/mcu/gnu_tools_for_arm/11.3_rel1/bin/../lib/gcc/arm-none-eabi/11.3.1/thumb/v7e-m+fp/hard\libgcc.a(_arm_fixdfsi.o)
 .ARM.attributes
                0x000013da       0x34 i:/mcu/gnu_tools_for_arm/11.3_rel1/bin/../lib/gcc/arm-none-eabi/11.3.1/thumb/v7e-m+fp/hard/crtend.o
 .ARM.attributes
                0x0000140e       0x1e i:/mcu/gnu_tools_for_arm/11.3_rel1/bin/../lib/gcc/arm-none-eabi/11.3.1/thumb/v7e-m+fp/hard/crtn.o

.comment        0x00000000       0x33
 .comment       0x00000000       0x33 i:/mcu/gnu_tools_for_arm/11.3_rel1/bin/../lib/gcc/arm-none-eabi/11.3.1/thumb/v7e-m+fp/hard/crtbegin.o
                                 0x34 (size before relaxing)
 .comment       0x00000033       0x34 build/main.o
 .comment       0x00000033       0x34 build/cpu.o
 .comment       0x00000033       0x34 build/cs.o
 .comment       0x00000033       0x34 build/flash.o
 .comment       0x00000033       0x34 build/fpu.o
 .comment       0x00000033       0x34 build/gpio.o
 .comment       0x00000033       0x34 build/interrupt.o
 .comment       0x00000033       0x34 build/mpu.o
 .comment       0x00000033       0x34 build/pcm.o
 .comment       0x00000033       0x34 build/pss.o
 .comment       0x00000033       0x34 build/ref_a.o
 .comment       0x00000033       0x34 build/reset.o
 .comment       0x00000033       0x34 build/rtc_c.o
 .comment       0x00000033       0x34 build/sysctl.o
 .comment       0x00000033       0x34 build/systick.o
 .comment       0x00000033       0x34 build/uart.o
 .comment       0x00000033       0x34 build/wdt_a.o
 .comment       0x00000033       0x34 build/startup_msp432p401r_gcc.o
 .comment       0x00000033       0x34 build/system_msp432p401r.o
 .comment       0x00000033       0x34 build/user_periph.o
 .comment       0x00000033       0x34 build/syscalls.o
 .comment       0x00000033       0x34 build/user_uart.o
 .comment       0x00000033       0x34 build/user_dma.o
 .comment       0x00000033       0x34 build/iic_bus.o
 .comment       0x00000033       0x34 i:/mcu/gnu_tools_for_arm/11.3_rel1/bin/../lib/gcc/arm-none-eabi/11.3.1/thumb/v7e-m+fp/hard\libc.a(libc_a-exit.o)
 .comment       0x00000033       0x34 i:/mcu/gnu_tools_for_arm/11.3_rel1/bin/../lib/gcc/arm-none-eabi/11.3.1/thumb/v7e-m+fp/hard\libc.a(libc_a-findfp.o)
 .comment       0x00000033       0x34 i:/mcu/gnu_tools_for_arm/11.3_rel1/bin/../lib/gcc/arm-none-eabi/11.3.1/thumb/v7e-m+fp/hard\libc.a(libc_a-fwalk.o)
 .comment       0x00000033       0x34 i:/mcu/gnu_tools_for_arm/11.3_rel1/bin/../lib/gcc/arm-none-eabi/11.3.1/thumb/v7e-m+fp/hard\libc.a(libc_a-sprintf.o)
 .comment       0x00000033       0x34 i:/mcu/gnu_tools_for_arm/11.3_rel1/bin/../lib/gcc/arm-none-eabi/11.3.1/thumb/v7e-m+fp/hard\libc.a(libc_a-stdio.o)
 .comment       0x00000033       0x34 i:/mcu/gnu_tools_for_arm/11.3_rel1/bin/../lib/gcc/arm-none-eabi/11.3.1/thumb/v7e-m+fp/hard\libc.a(libc_a-memset.o)
 .comment       0x00000033       0x34 i:/mcu/gnu_tools_for_arm/11.3_rel1/bin/../lib/gcc/arm-none-eabi/11.3.1/thumb/v7e-m+fp/hard\libc.a(libc_a-closer.o)
 .comment       0x00000033       0x34 i:/mcu/gnu_tools_for_arm/11.3_rel1/bin/../lib/gcc/arm-none-eabi/11.3.1/thumb/v7e-m+fp/hard\libc.a(libc_a-reent.o)
 .comment       0x00000033       0x34 i:/mcu/gnu_tools_for_arm/11.3_rel1/bin/../lib/gcc/arm-none-eabi/11.3.1/thumb/v7e-m+fp/hard\libc.a(libc_a-impure.o)
 .comment       0x00000033       0x34 i:/mcu/gnu_tools_for_arm/11.3_rel1/bin/../lib/gcc/arm-none-eabi/11.3.1/thumb/v7e-m+fp/hard\libc.a(libc_a-lseekr.o)
 .comment       0x00000033       0x34 i:/mcu/gnu_tools_for_arm/11.3_rel1/bin/../lib/gcc/arm-none-eabi/11.3.1/thumb/v7e-m+fp/hard\libc.a(libc_a-readr.o)
 .comment       0x00000033       0x34 i:/mcu/gnu_tools_for_arm/11.3_rel1/bin/../lib/gcc/arm-none-eabi/11.3.1/thumb/v7e-m+fp/hard\libc.a(libc_a-writer.o)
 .comment       0x00000033       0x34 i:/mcu/gnu_tools_for_arm/11.3_rel1/bin/../lib/gcc/arm-none-eabi/11.3.1/thumb/v7e-m+fp/hard\libc.a(libc_a-errno.o)
 .comment       0x00000033       0x34 i:/mcu/gnu_tools_for_arm/11.3_rel1/bin/../lib/gcc/arm-none-eabi/11.3.1/thumb/v7e-m+fp/hard\libc.a(libc_a-init.o)
 .comment       0x00000033       0x34 i:/mcu/gnu_tools_for_arm/11.3_rel1/bin/../lib/gcc/arm-none-eabi/11.3.1/thumb/v7e-m+fp/hard\libc.a(libc_a-lock.o)
 .comment       0x00000033       0x34 i:/mcu/gnu_tools_for_arm/11.3_rel1/bin/../lib/gcc/arm-none-eabi/11.3.1/thumb/v7e-m+fp/hard\libc.a(libc_a-__call_atexit.o)
 .comment       0x00000033       0x34 i:/mcu/gnu_tools_for_arm/11.3_rel1/bin/../lib/gcc/arm-none-eabi/11.3.1/thumb/v7e-m+fp/hard\libc.a(libc_a-atexit.o)
 .comment       0x00000033       0x34 i:/mcu/gnu_tools_for_arm/11.3_rel1/bin/../lib/gcc/arm-none-eabi/11.3.1/thumb/v7e-m+fp/hard\libc.a(libc_a-freer.o)
 .comment       0x00000033       0x34 i:/mcu/gnu_tools_for_arm/11.3_rel1/bin/../lib/gcc/arm-none-eabi/11.3.1/thumb/v7e-m+fp/hard\libc.a(libc_a-mallocr.o)
 .comment       0x00000033       0x34 i:/mcu/gnu_tools_for_arm/11.3_rel1/bin/../lib/gcc/arm-none-eabi/11.3.1/thumb/v7e-m+fp/hard\libc.a(libc_a-mlock.o)
 .comment       0x00000033       0x34 i:/mcu/gnu_tools_for_arm/11.3_rel1/bin/../lib/gcc/arm-none-eabi/11.3.1/thumb/v7e-m+fp/hard\libc.a(libc_a-svfprintf.o)
 .comment       0x00000033       0x34 i:/mcu/gnu_tools_for_arm/11.3_rel1/bin/../lib/gcc/arm-none-eabi/11.3.1/thumb/v7e-m+fp/hard\libc.a(libc_a-fclose.o)
 .comment       0x00000033       0x34 i:/mcu/gnu_tools_for_arm/11.3_rel1/bin/../lib/gcc/arm-none-eabi/11.3.1/thumb/v7e-m+fp/hard\libc.a(libc_a-fflush.o)
 .comment       0x00000033       0x34 i:/mcu/gnu_tools_for_arm/11.3_rel1/bin/../lib/gcc/arm-none-eabi/11.3.1/thumb/v7e-m+fp/hard\libc.a(libc_a-strncpy.o)
 .comment       0x00000033       0x34 i:/mcu/gnu_tools_for_arm/11.3_rel1/bin/../lib/gcc/arm-none-eabi/11.3.1/thumb/v7e-m+fp/hard\libc.a(libc_a-locale.o)
 .comment       0x00000033       0x34 i:/mcu/gnu_tools_for_arm/11.3_rel1/bin/../lib/gcc/arm-none-eabi/11.3.1/thumb/v7e-m+fp/hard\libc.a(libc_a-localeconv.o)
 .comment       0x00000033       0x34 i:/mcu/gnu_tools_for_arm/11.3_rel1/bin/../lib/gcc/arm-none-eabi/11.3.1/thumb/v7e-m+fp/hard\libc.a(libc_a-sbrkr.o)
 .comment       0x00000033       0x34 i:/mcu/gnu_tools_for_arm/11.3_rel1/bin/../lib/gcc/arm-none-eabi/11.3.1/thumb/v7e-m+fp/hard\libc.a(libc_a-fini.o)
 .comment       0x00000033       0x34 i:/mcu/gnu_tools_for_arm/11.3_rel1/bin/../lib/gcc/arm-none-eabi/11.3.1/thumb/v7e-m+fp/hard\libc.a(libc_a-strcpy.o)
 .comment       0x00000033       0x34 i:/mcu/gnu_tools_for_arm/11.3_rel1/bin/../lib/gcc/arm-none-eabi/11.3.1/thumb/v7e-m+fp/hard\libc.a(libm_a-s_frexp.o)
 .comment       0x00000033       0x34 i:/mcu/gnu_tools_for_arm/11.3_rel1/bin/../lib/gcc/arm-none-eabi/11.3.1/thumb/v7e-m+fp/hard\libc.a(libc_a-__atexit.o)
 .comment       0x00000033       0x34 i:/mcu/gnu_tools_for_arm/11.3_rel1/bin/../lib/gcc/arm-none-eabi/11.3.1/thumb/v7e-m+fp/hard\libc.a(libc_a-dtoa.o)
 .comment       0x00000033       0x34 i:/mcu/gnu_tools_for_arm/11.3_rel1/bin/../lib/gcc/arm-none-eabi/11.3.1/thumb/v7e-m+fp/hard\libc.a(libc_a-getenv_r.o)
 .comment       0x00000033       0x34 i:/mcu/gnu_tools_for_arm/11.3_rel1/bin/../lib/gcc/arm-none-eabi/11.3.1/thumb/v7e-m+fp/hard\libc.a(libc_a-mbtowc_r.o)
 .comment       0x00000033       0x34 i:/mcu/gnu_tools_for_arm/11.3_rel1/bin/../lib/gcc/arm-none-eabi/11.3.1/thumb/v7e-m+fp/hard\libc.a(libc_a-mprec.o)
 .comment       0x00000033       0x34 i:/mcu/gnu_tools_for_arm/11.3_rel1/bin/../lib/gcc/arm-none-eabi/11.3.1/thumb/v7e-m+fp/hard\libc.a(libc_a-strtol.o)
 .comment       0x00000033       0x34 i:/mcu/gnu_tools_for_arm/11.3_rel1/bin/../lib/gcc/arm-none-eabi/11.3.1/thumb/v7e-m+fp/hard\libc.a(libc_a-wctomb_r.o)
 .comment       0x00000033       0x34 i:/mcu/gnu_tools_for_arm/11.3_rel1/bin/../lib/gcc/arm-none-eabi/11.3.1/thumb/v7e-m+fp/hard\libc.a(libc_a-wcrtomb.o)
 .comment       0x00000033       0x34 i:/mcu/gnu_tools_for_arm/11.3_rel1/bin/../lib/gcc/arm-none-eabi/11.3.1/thumb/v7e-m+fp/hard\libc.a(libc_a-wcsrtombs.o)
 .comment       0x00000033       0x34 i:/mcu/gnu_tools_for_arm/11.3_rel1/bin/../lib/gcc/arm-none-eabi/11.3.1/thumb/v7e-m+fp/hard\libc.a(libc_a-ctype_.o)
 .comment       0x00000033       0x34 i:/mcu/gnu_tools_for_arm/11.3_rel1/bin/../lib/gcc/arm-none-eabi/11.3.1/thumb/v7e-m+fp/hard\libc.a(libc_a-svfiprintf.o)
 .comment       0x00000033       0x34 i:/mcu/gnu_tools_for_arm/11.3_rel1/bin/../lib/gcc/arm-none-eabi/11.3.1/thumb/v7e-m+fp/hard\libc.a(libc_a-memmove.o)
 .comment       0x00000033       0x34 i:/mcu/gnu_tools_for_arm/11.3_rel1/bin/../lib/gcc/arm-none-eabi/11.3.1/thumb/v7e-m+fp/hard\libc.a(libc_a-strcasecmp.o)
 .comment       0x00000033       0x34 i:/mcu/gnu_tools_for_arm/11.3_rel1/bin/../lib/gcc/arm-none-eabi/11.3.1/thumb/v7e-m+fp/hard\libc.a(libc_a-strcat.o)
 .comment       0x00000033       0x34 i:/mcu/gnu_tools_for_arm/11.3_rel1/bin/../lib/gcc/arm-none-eabi/11.3.1/thumb/v7e-m+fp/hard\libc.a(libc_a-strchr.o)
 .comment       0x00000033       0x34 i:/mcu/gnu_tools_for_arm/11.3_rel1/bin/../lib/gcc/arm-none-eabi/11.3.1/thumb/v7e-m+fp/hard\libc.a(libc_a-strlcpy.o)
 .comment       0x00000033       0x34 i:/mcu/gnu_tools_for_arm/11.3_rel1/bin/../lib/gcc/arm-none-eabi/11.3.1/thumb/v7e-m+fp/hard\libc.a(libc_a-strncasecmp.o)
 .comment       0x00000033       0x34 i:/mcu/gnu_tools_for_arm/11.3_rel1/bin/../lib/gcc/arm-none-eabi/11.3.1/thumb/v7e-m+fp/hard\libc.a(libc_a-strncmp.o)
 .comment       0x00000033       0x34 i:/mcu/gnu_tools_for_arm/11.3_rel1/bin/../lib/gcc/arm-none-eabi/11.3.1/thumb/v7e-m+fp/hard\libc.a(libc_a-assert.o)
 .comment       0x00000033       0x34 i:/mcu/gnu_tools_for_arm/11.3_rel1/bin/../lib/gcc/arm-none-eabi/11.3.1/thumb/v7e-m+fp/hard\libc.a(libc_a-callocr.o)
 .comment       0x00000033       0x34 i:/mcu/gnu_tools_for_arm/11.3_rel1/bin/../lib/gcc/arm-none-eabi/11.3.1/thumb/v7e-m+fp/hard\libc.a(libc_a-envlock.o)
 .comment       0x00000033       0x34 i:/mcu/gnu_tools_for_arm/11.3_rel1/bin/../lib/gcc/arm-none-eabi/11.3.1/thumb/v7e-m+fp/hard\libc.a(libc_a-reallocr.o)
 .comment       0x00000033       0x34 i:/mcu/gnu_tools_for_arm/11.3_rel1/bin/../lib/gcc/arm-none-eabi/11.3.1/thumb/v7e-m+fp/hard\libc.a(libc_a-wcsnrtombs.o)
 .comment       0x00000033       0x34 i:/mcu/gnu_tools_for_arm/11.3_rel1/bin/../lib/gcc/arm-none-eabi/11.3.1/thumb/v7e-m+fp/hard\libc.a(libc_a-fiprintf.o)
 .comment       0x00000033       0x34 i:/mcu/gnu_tools_for_arm/11.3_rel1/bin/../lib/gcc/arm-none-eabi/11.3.1/thumb/v7e-m+fp/hard\libc.a(libc_a-vfiprintf.o)
 .comment       0x00000033       0x34 i:/mcu/gnu_tools_for_arm/11.3_rel1/bin/../lib/gcc/arm-none-eabi/11.3.1/thumb/v7e-m+fp/hard\libc.a(libc_a-fvwrite.o)
 .comment       0x00000033       0x34 i:/mcu/gnu_tools_for_arm/11.3_rel1/bin/../lib/gcc/arm-none-eabi/11.3.1/thumb/v7e-m+fp/hard\libc.a(libc_a-wsetup.o)
 .comment       0x00000033       0x34 i:/mcu/gnu_tools_for_arm/11.3_rel1/bin/../lib/gcc/arm-none-eabi/11.3.1/thumb/v7e-m+fp/hard\libc.a(libc_a-fputwc.o)
 .comment       0x00000033       0x34 i:/mcu/gnu_tools_for_arm/11.3_rel1/bin/../lib/gcc/arm-none-eabi/11.3.1/thumb/v7e-m+fp/hard\libc.a(libc_a-abort.o)
 .comment       0x00000033       0x34 i:/mcu/gnu_tools_for_arm/11.3_rel1/bin/../lib/gcc/arm-none-eabi/11.3.1/thumb/v7e-m+fp/hard\libc.a(libc_a-makebuf.o)
 .comment       0x00000033       0x34 i:/mcu/gnu_tools_for_arm/11.3_rel1/bin/../lib/gcc/arm-none-eabi/11.3.1/thumb/v7e-m+fp/hard\libc.a(libc_a-wbuf.o)
 .comment       0x00000033       0x34 i:/mcu/gnu_tools_for_arm/11.3_rel1/bin/../lib/gcc/arm-none-eabi/11.3.1/thumb/v7e-m+fp/hard\libc.a(libc_a-signal.o)
 .comment       0x00000033       0x34 i:/mcu/gnu_tools_for_arm/11.3_rel1/bin/../lib/gcc/arm-none-eabi/11.3.1/thumb/v7e-m+fp/hard\libc.a(libc_a-fstatr.o)
 .comment       0x00000033       0x34 i:/mcu/gnu_tools_for_arm/11.3_rel1/bin/../lib/gcc/arm-none-eabi/11.3.1/thumb/v7e-m+fp/hard\libc.a(libc_a-isattyr.o)
 .comment       0x00000033       0x34 i:/mcu/gnu_tools_for_arm/11.3_rel1/bin/../lib/gcc/arm-none-eabi/11.3.1/thumb/v7e-m+fp/hard\libc.a(libc_a-signalr.o)
 .comment       0x00000033       0x34 i:/mcu/gnu_tools_for_arm/11.3_rel1/bin/../lib/gcc/arm-none-eabi/11.3.1/thumb/v7e-m+fp/hard\libnosys.a(sbrk.o)
 .comment       0x00000033       0x34 i:/mcu/gnu_tools_for_arm/11.3_rel1/bin/../lib/gcc/arm-none-eabi/11.3.1/thumb/v7e-m+fp/hard/crtend.o

.debug_line     0x00000000    0x18cba
 .debug_line    0x00000000       0x76 i:/mcu/gnu_tools_for_arm/11.3_rel1/bin/../lib/gcc/arm-none-eabi/11.3.1/thumb/v7e-m+fp/hard/crt0.o
 .debug_line    0x00000076      0x1fa build/main.o
 .debug_line    0x00000270      0x127 build/cpu.o
 .debug_line    0x00000397      0x918 build/cs.o
 .debug_line    0x00000caf      0xe65 build/flash.o
 .debug_line    0x00001b14      0x18b build/fpu.o
 .debug_line    0x00001c9f      0x2a8 build/gpio.o
 .debug_line    0x00001f47      0x391 build/interrupt.o
 .debug_line    0x000022d8      0x1aa build/mpu.o
 .debug_line    0x00002482      0x5df build/pcm.o
 .debug_line    0x00002a61      0x272 build/pss.o
 .debug_line    0x00002cd3      0x1d5 build/ref_a.o
 .debug_line    0x00002ea8      0x151 build/reset.o
 .debug_line    0x00002ff9      0x519 build/rtc_c.o
 .debug_line    0x00003512      0x2e4 build/sysctl.o
 .debug_line    0x000037f6      0x163 build/systick.o
 .debug_line    0x00003959      0x3d4 build/uart.o
 .debug_line    0x00003d2d      0x1e8 build/wdt_a.o
 .debug_line    0x00003f15      0x11f build/startup_msp432p401r_gcc.o
 .debug_line    0x00004034      0x31b build/system_msp432p401r.o
 .debug_line    0x0000434f       0xb7 build/user_periph.o
 .debug_line    0x00004406      0x225 build/syscalls.o
 .debug_line    0x0000462b      0x400 build/user_uart.o
 .debug_line    0x00004a2b      0x256 build/user_dma.o
 .debug_line    0x00004c81      0x46a build/iic_bus.o
 .debug_line    0x000050eb      0x18e i:/mcu/gnu_tools_for_arm/11.3_rel1/bin/../lib/gcc/arm-none-eabi/11.3.1/thumb/v7e-m+fp/hard\libc.a(libc_a-exit.o)
 .debug_line    0x00005279      0x6ad i:/mcu/gnu_tools_for_arm/11.3_rel1/bin/../lib/gcc/arm-none-eabi/11.3.1/thumb/v7e-m+fp/hard\libc.a(libc_a-findfp.o)
 .debug_line    0x00005926      0x252 i:/mcu/gnu_tools_for_arm/11.3_rel1/bin/../lib/gcc/arm-none-eabi/11.3.1/thumb/v7e-m+fp/hard\libc.a(libc_a-fwalk.o)
 .debug_line    0x00005b78      0x2a4 i:/mcu/gnu_tools_for_arm/11.3_rel1/bin/../lib/gcc/arm-none-eabi/11.3.1/thumb/v7e-m+fp/hard\libc.a(libc_a-sprintf.o)
 .debug_line    0x00005e1c      0x2e4 i:/mcu/gnu_tools_for_arm/11.3_rel1/bin/../lib/gcc/arm-none-eabi/11.3.1/thumb/v7e-m+fp/hard\libc.a(libc_a-stdio.o)
 .debug_line    0x00006100      0x23d i:/mcu/gnu_tools_for_arm/11.3_rel1/bin/../lib/gcc/arm-none-eabi/11.3.1/thumb/v7e-m+fp/hard\libc.a(libc_a-memset.o)
 .debug_line    0x0000633d      0x217 i:/mcu/gnu_tools_for_arm/11.3_rel1/bin/../lib/gcc/arm-none-eabi/11.3.1/thumb/v7e-m+fp/hard\libc.a(libc_a-closer.o)
 .debug_line    0x00006554      0x25b i:/mcu/gnu_tools_for_arm/11.3_rel1/bin/../lib/gcc/arm-none-eabi/11.3.1/thumb/v7e-m+fp/hard\libc.a(libc_a-reent.o)
 .debug_line    0x000067af       0xfe i:/mcu/gnu_tools_for_arm/11.3_rel1/bin/../lib/gcc/arm-none-eabi/11.3.1/thumb/v7e-m+fp/hard\libc.a(libc_a-impure.o)
 .debug_line    0x000068ad      0x21d i:/mcu/gnu_tools_for_arm/11.3_rel1/bin/../lib/gcc/arm-none-eabi/11.3.1/thumb/v7e-m+fp/hard\libc.a(libc_a-lseekr.o)
 .debug_line    0x00006aca      0x21c i:/mcu/gnu_tools_for_arm/11.3_rel1/bin/../lib/gcc/arm-none-eabi/11.3.1/thumb/v7e-m+fp/hard\libc.a(libc_a-readr.o)
 .debug_line    0x00006ce6      0x21d i:/mcu/gnu_tools_for_arm/11.3_rel1/bin/../lib/gcc/arm-none-eabi/11.3.1/thumb/v7e-m+fp/hard\libc.a(libc_a-writer.o)
 .debug_line    0x00006f03      0x180 i:/mcu/gnu_tools_for_arm/11.3_rel1/bin/../lib/gcc/arm-none-eabi/11.3.1/thumb/v7e-m+fp/hard\libc.a(libc_a-errno.o)
 .debug_line    0x00007083      0x17e i:/mcu/gnu_tools_for_arm/11.3_rel1/bin/../lib/gcc/arm-none-eabi/11.3.1/thumb/v7e-m+fp/hard\libc.a(libc_a-init.o)
 .debug_line    0x00007201      0x105 i:/mcu/gnu_tools_for_arm/11.3_rel1/bin/../lib/gcc/arm-none-eabi/11.3.1/thumb/v7e-m+fp/hard\libc.a(libc_a-lock.o)
 .debug_line    0x00007306      0x2ae i:/mcu/gnu_tools_for_arm/11.3_rel1/bin/../lib/gcc/arm-none-eabi/11.3.1/thumb/v7e-m+fp/hard\libc.a(libc_a-__call_atexit.o)
 .debug_line    0x000075b4      0x104 i:/mcu/gnu_tools_for_arm/11.3_rel1/bin/../lib/gcc/arm-none-eabi/11.3.1/thumb/v7e-m+fp/hard\libc.a(libc_a-atexit.o)
 .debug_line    0x000076b8      0x595 i:/mcu/gnu_tools_for_arm/11.3_rel1/bin/../lib/gcc/arm-none-eabi/11.3.1/thumb/v7e-m+fp/hard\libc.a(libc_a-freer.o)
 .debug_line    0x00007c4d      0x949 i:/mcu/gnu_tools_for_arm/11.3_rel1/bin/../lib/gcc/arm-none-eabi/11.3.1/thumb/v7e-m+fp/hard\libc.a(libc_a-mallocr.o)
 .debug_line    0x00008596      0x1e6 i:/mcu/gnu_tools_for_arm/11.3_rel1/bin/../lib/gcc/arm-none-eabi/11.3.1/thumb/v7e-m+fp/hard\libc.a(libc_a-mlock.o)
 .debug_line    0x0000877c     0x1eb2 i:/mcu/gnu_tools_for_arm/11.3_rel1/bin/../lib/gcc/arm-none-eabi/11.3.1/thumb/v7e-m+fp/hard\libc.a(libc_a-svfprintf.o)
 .debug_line    0x0000a62e      0x357 i:/mcu/gnu_tools_for_arm/11.3_rel1/bin/../lib/gcc/arm-none-eabi/11.3.1/thumb/v7e-m+fp/hard\libc.a(libc_a-fclose.o)
 .debug_line    0x0000a985      0x52f i:/mcu/gnu_tools_for_arm/11.3_rel1/bin/../lib/gcc/arm-none-eabi/11.3.1/thumb/v7e-m+fp/hard\libc.a(libc_a-fflush.o)
 .debug_line    0x0000aeb4      0x1fc i:/mcu/gnu_tools_for_arm/11.3_rel1/bin/../lib/gcc/arm-none-eabi/11.3.1/thumb/v7e-m+fp/hard\libc.a(libc_a-strncpy.o)
 .debug_line    0x0000b0b0      0xbbf i:/mcu/gnu_tools_for_arm/11.3_rel1/bin/../lib/gcc/arm-none-eabi/11.3.1/thumb/v7e-m+fp/hard\libc.a(libc_a-locale.o)
 .debug_line    0x0000bc6f      0x225 i:/mcu/gnu_tools_for_arm/11.3_rel1/bin/../lib/gcc/arm-none-eabi/11.3.1/thumb/v7e-m+fp/hard\libc.a(libc_a-localeconv.o)
 .debug_line    0x0000be94      0x217 i:/mcu/gnu_tools_for_arm/11.3_rel1/bin/../lib/gcc/arm-none-eabi/11.3.1/thumb/v7e-m+fp/hard\libc.a(libc_a-sbrkr.o)
 .debug_line    0x0000c0ab      0x136 i:/mcu/gnu_tools_for_arm/11.3_rel1/bin/../lib/gcc/arm-none-eabi/11.3.1/thumb/v7e-m+fp/hard\libc.a(libc_a-fini.o)
 .debug_line    0x0000c1e1      0x10f i:/mcu/gnu_tools_for_arm/11.3_rel1/bin/../lib/gcc/arm-none-eabi/11.3.1/thumb/v7e-m+fp/hard\libc.a(libc_a-strcmp.o)
 .debug_line    0x0000c2f0       0xfa i:/mcu/gnu_tools_for_arm/11.3_rel1/bin/../lib/gcc/arm-none-eabi/11.3.1/thumb/v7e-m+fp/hard\libc.a(libc_a-strcpy.o)
 .debug_line    0x0000c3ea       0x82 i:/mcu/gnu_tools_for_arm/11.3_rel1/bin/../lib/gcc/arm-none-eabi/11.3.1/thumb/v7e-m+fp/hard\libc.a(libc_a-memchr.o)
 .debug_line    0x0000c46c       0x87 i:/mcu/gnu_tools_for_arm/11.3_rel1/bin/../lib/gcc/arm-none-eabi/11.3.1/thumb/v7e-m+fp/hard\libc.a(libc_a-strlen.o)
 .debug_line    0x0000c4f3      0x252 i:/mcu/gnu_tools_for_arm/11.3_rel1/bin/../lib/gcc/arm-none-eabi/11.3.1/thumb/v7e-m+fp/hard\libc.a(libm_a-s_frexp.o)
 .debug_line    0x0000c745      0x1b6 i:/mcu/gnu_tools_for_arm/11.3_rel1/bin/../lib/gcc/arm-none-eabi/11.3.1/thumb/v7e-m+fp/hard\libc.a(libc_a-__atexit.o)
 .debug_line    0x0000c8fb     0x1594 i:/mcu/gnu_tools_for_arm/11.3_rel1/bin/../lib/gcc/arm-none-eabi/11.3.1/thumb/v7e-m+fp/hard\libc.a(libc_a-dtoa.o)
 .debug_line    0x0000de8f      0x2bc i:/mcu/gnu_tools_for_arm/11.3_rel1/bin/../lib/gcc/arm-none-eabi/11.3.1/thumb/v7e-m+fp/hard\libc.a(libc_a-getenv_r.o)
 .debug_line    0x0000e14b      0xad4 i:/mcu/gnu_tools_for_arm/11.3_rel1/bin/../lib/gcc/arm-none-eabi/11.3.1/thumb/v7e-m+fp/hard\libc.a(libc_a-mbtowc_r.o)
 .debug_line    0x0000ec1f     0x1787 i:/mcu/gnu_tools_for_arm/11.3_rel1/bin/../lib/gcc/arm-none-eabi/11.3.1/thumb/v7e-m+fp/hard\libc.a(libc_a-mprec.o)
 .debug_line    0x000103a6      0x4a8 i:/mcu/gnu_tools_for_arm/11.3_rel1/bin/../lib/gcc/arm-none-eabi/11.3.1/thumb/v7e-m+fp/hard\libc.a(libc_a-strtol.o)
 .debug_line    0x0001084e      0x636 i:/mcu/gnu_tools_for_arm/11.3_rel1/bin/../lib/gcc/arm-none-eabi/11.3.1/thumb/v7e-m+fp/hard\libc.a(libc_a-wctomb_r.o)
 .debug_line    0x00010e84      0x342 i:/mcu/gnu_tools_for_arm/11.3_rel1/bin/../lib/gcc/arm-none-eabi/11.3.1/thumb/v7e-m+fp/hard\libc.a(libc_a-wcrtomb.o)
 .debug_line    0x000111c6      0x204 i:/mcu/gnu_tools_for_arm/11.3_rel1/bin/../lib/gcc/arm-none-eabi/11.3.1/thumb/v7e-m+fp/hard\libc.a(libc_a-wcsrtombs.o)
 .debug_line    0x000113ca      0x265 i:/mcu/gnu_tools_for_arm/11.3_rel1/bin/../lib/gcc/arm-none-eabi/11.3.1/thumb/v7e-m+fp/hard\libc.a(libc_a-ctype_.o)
 .debug_line    0x0001162f     0x121c i:/mcu/gnu_tools_for_arm/11.3_rel1/bin/../lib/gcc/arm-none-eabi/11.3.1/thumb/v7e-m+fp/hard\libc.a(libc_a-svfiprintf.o)
 .debug_line    0x0001284b      0x265 i:/mcu/gnu_tools_for_arm/11.3_rel1/bin/../lib/gcc/arm-none-eabi/11.3.1/thumb/v7e-m+fp/hard\libc.a(libc_a-memmove.o)
 .debug_line    0x00012ab0      0x170 i:/mcu/gnu_tools_for_arm/11.3_rel1/bin/../lib/gcc/arm-none-eabi/11.3.1/thumb/v7e-m+fp/hard\libc.a(libc_a-strcasecmp.o)
 .debug_line    0x00012c20      0x135 i:/mcu/gnu_tools_for_arm/11.3_rel1/bin/../lib/gcc/arm-none-eabi/11.3.1/thumb/v7e-m+fp/hard\libc.a(libc_a-strcat.o)
 .debug_line    0x00012d55      0x1f0 i:/mcu/gnu_tools_for_arm/11.3_rel1/bin/../lib/gcc/arm-none-eabi/11.3.1/thumb/v7e-m+fp/hard\libc.a(libc_a-strchr.o)
 .debug_line    0x00012f45      0x1bb i:/mcu/gnu_tools_for_arm/11.3_rel1/bin/../lib/gcc/arm-none-eabi/11.3.1/thumb/v7e-m+fp/hard\libc.a(libc_a-strlcpy.o)
 .debug_line    0x00013100      0x1fb i:/mcu/gnu_tools_for_arm/11.3_rel1/bin/../lib/gcc/arm-none-eabi/11.3.1/thumb/v7e-m+fp/hard\libc.a(libc_a-strncasecmp.o)
 .debug_line    0x000132fb      0x261 i:/mcu/gnu_tools_for_arm/11.3_rel1/bin/../lib/gcc/arm-none-eabi/11.3.1/thumb/v7e-m+fp/hard\libc.a(libc_a-strncmp.o)
 .debug_line    0x0001355c       0x95 i:/mcu/gnu_tools_for_arm/11.3_rel1/bin/../lib/gcc/arm-none-eabi/11.3.1/thumb/v7e-m+fp/hard\libc.a(libc_a-memcpy.o)
 .debug_line    0x000135f1      0x22d i:/mcu/gnu_tools_for_arm/11.3_rel1/bin/../lib/gcc/arm-none-eabi/11.3.1/thumb/v7e-m+fp/hard\libc.a(libc_a-assert.o)
 .debug_line    0x0001381e      0x26d i:/mcu/gnu_tools_for_arm/11.3_rel1/bin/../lib/gcc/arm-none-eabi/11.3.1/thumb/v7e-m+fp/hard\libc.a(libc_a-callocr.o)
 .debug_line    0x00013a8b      0x1e9 i:/mcu/gnu_tools_for_arm/11.3_rel1/bin/../lib/gcc/arm-none-eabi/11.3.1/thumb/v7e-m+fp/hard\libc.a(libc_a-envlock.o)
 .debug_line    0x00013c74      0x84a i:/mcu/gnu_tools_for_arm/11.3_rel1/bin/../lib/gcc/arm-none-eabi/11.3.1/thumb/v7e-m+fp/hard\libc.a(libc_a-reallocr.o)
 .debug_line    0x000144be      0x44f i:/mcu/gnu_tools_for_arm/11.3_rel1/bin/../lib/gcc/arm-none-eabi/11.3.1/thumb/v7e-m+fp/hard\libc.a(libc_a-wcsnrtombs.o)
 .debug_line    0x0001490d      0x239 i:/mcu/gnu_tools_for_arm/11.3_rel1/bin/../lib/gcc/arm-none-eabi/11.3.1/thumb/v7e-m+fp/hard\libc.a(libc_a-fiprintf.o)
 .debug_line    0x00014b46     0x1620 i:/mcu/gnu_tools_for_arm/11.3_rel1/bin/../lib/gcc/arm-none-eabi/11.3.1/thumb/v7e-m+fp/hard\libc.a(libc_a-vfiprintf.o)
 .debug_line    0x00016166      0x681 i:/mcu/gnu_tools_for_arm/11.3_rel1/bin/../lib/gcc/arm-none-eabi/11.3.1/thumb/v7e-m+fp/hard\libc.a(libc_a-fvwrite.o)
 .debug_line    0x000167e7      0x374 i:/mcu/gnu_tools_for_arm/11.3_rel1/bin/../lib/gcc/arm-none-eabi/11.3.1/thumb/v7e-m+fp/hard\libc.a(libc_a-wsetup.o)
 .debug_line    0x00016b5b      0x415 i:/mcu/gnu_tools_for_arm/11.3_rel1/bin/../lib/gcc/arm-none-eabi/11.3.1/thumb/v7e-m+fp/hard\libc.a(libc_a-fputwc.o)
 .debug_line    0x00016f70      0x16a i:/mcu/gnu_tools_for_arm/11.3_rel1/bin/../lib/gcc/arm-none-eabi/11.3.1/thumb/v7e-m+fp/hard\libc.a(libc_a-abort.o)
 .debug_line    0x000170da      0x451 i:/mcu/gnu_tools_for_arm/11.3_rel1/bin/../lib/gcc/arm-none-eabi/11.3.1/thumb/v7e-m+fp/hard\libc.a(libc_a-makebuf.o)
 .debug_line    0x0001752b      0x36e i:/mcu/gnu_tools_for_arm/11.3_rel1/bin/../lib/gcc/arm-none-eabi/11.3.1/thumb/v7e-m+fp/hard\libc.a(libc_a-wbuf.o)
 .debug_line    0x00017899      0x71b i:/mcu/gnu_tools_for_arm/11.3_rel1/bin/../lib/gcc/arm-none-eabi/11.3.1/thumb/v7e-m+fp/hard\libc.a(libc_a-signal.o)
 .debug_line    0x00017fb4      0x2b4 i:/mcu/gnu_tools_for_arm/11.3_rel1/bin/../lib/gcc/arm-none-eabi/11.3.1/thumb/v7e-m+fp/hard\libc.a(libc_a-fstatr.o)
 .debug_line    0x00018268      0x218 i:/mcu/gnu_tools_for_arm/11.3_rel1/bin/../lib/gcc/arm-none-eabi/11.3.1/thumb/v7e-m+fp/hard\libc.a(libc_a-isattyr.o)
 .debug_line    0x00018480      0x250 i:/mcu/gnu_tools_for_arm/11.3_rel1/bin/../lib/gcc/arm-none-eabi/11.3.1/thumb/v7e-m+fp/hard\libc.a(libc_a-signalr.o)
 .debug_line    0x000186d0       0xa3 i:/mcu/gnu_tools_for_arm/11.3_rel1/bin/../lib/gcc/arm-none-eabi/11.3.1/thumb/v7e-m+fp/hard\libnosys.a(sbrk.o)
 .debug_line    0x00018773       0xf5 i:/mcu/gnu_tools_for_arm/11.3_rel1/bin/../lib/gcc/arm-none-eabi/11.3.1/thumb/v7e-m+fp/hard\libgcc.a(_arm_muldf3.o)
 .debug_line    0x00018868      0x16f i:/mcu/gnu_tools_for_arm/11.3_rel1/bin/../lib/gcc/arm-none-eabi/11.3.1/thumb/v7e-m+fp/hard\libgcc.a(_arm_addsubdf3.o)
 .debug_line    0x000189d7      0x184 i:/mcu/gnu_tools_for_arm/11.3_rel1/bin/../lib/gcc/arm-none-eabi/11.3.1/thumb/v7e-m+fp/hard\libgcc.a(_arm_muldivdf3.o)
 .debug_line    0x00018b5b       0xa6 i:/mcu/gnu_tools_for_arm/11.3_rel1/bin/../lib/gcc/arm-none-eabi/11.3.1/thumb/v7e-m+fp/hard\libgcc.a(_arm_cmpdf2.o)
 .debug_line    0x00018c01       0x57 i:/mcu/gnu_tools_for_arm/11.3_rel1/bin/../lib/gcc/arm-none-eabi/11.3.1/thumb/v7e-m+fp/hard\libgcc.a(_arm_unorddf2.o)
 .debug_line    0x00018c58       0x62 i:/mcu/gnu_tools_for_arm/11.3_rel1/bin/../lib/gcc/arm-none-eabi/11.3.1/thumb/v7e-m+fp/hard\libgcc.a(_arm_fixdfsi.o)

.debug_line_str
                0x00000000      0x2bb
 .debug_line_str
                0x00000000       0xe3 i:/mcu/gnu_tools_for_arm/11.3_rel1/bin/../lib/gcc/arm-none-eabi/11.3.1/thumb/v7e-m+fp/hard/crt0.o
                                 0xea (size before relaxing)
 .debug_line_str
                0x000000e3       0xe2 i:/mcu/gnu_tools_for_arm/11.3_rel1/bin/../lib/gcc/arm-none-eabi/11.3.1/thumb/v7e-m+fp/hard\libc.a(libc_a-strcmp.o)
                                 0xf1 (size before relaxing)
 .debug_line_str
                0x000001c5        0x9 i:/mcu/gnu_tools_for_arm/11.3_rel1/bin/../lib/gcc/arm-none-eabi/11.3.1/thumb/v7e-m+fp/hard\libc.a(libc_a-memchr.o)
                                 0xe5 (size before relaxing)
 .debug_line_str
                0x000001ce        0xf i:/mcu/gnu_tools_for_arm/11.3_rel1/bin/../lib/gcc/arm-none-eabi/11.3.1/thumb/v7e-m+fp/hard\libc.a(libc_a-strlen.o)
                                 0xf1 (size before relaxing)
 .debug_line_str
                0x000001dd       0x10 i:/mcu/gnu_tools_for_arm/11.3_rel1/bin/../lib/gcc/arm-none-eabi/11.3.1/thumb/v7e-m+fp/hard\libc.a(libc_a-memcpy.o)
                                 0xf3 (size before relaxing)
 .debug_line_str
                0x000001ed       0xce i:/mcu/gnu_tools_for_arm/11.3_rel1/bin/../lib/gcc/arm-none-eabi/11.3.1/thumb/v7e-m+fp/hard\libgcc.a(_arm_muldf3.o)
                                 0xdb (size before relaxing)
 .debug_line_str
                0x000002bb       0xdb i:/mcu/gnu_tools_for_arm/11.3_rel1/bin/../lib/gcc/arm-none-eabi/11.3.1/thumb/v7e-m+fp/hard\libgcc.a(_arm_addsubdf3.o)
 .debug_line_str
                0x000002bb       0xdb i:/mcu/gnu_tools_for_arm/11.3_rel1/bin/../lib/gcc/arm-none-eabi/11.3.1/thumb/v7e-m+fp/hard\libgcc.a(_arm_muldivdf3.o)
 .debug_line_str
                0x000002bb       0xdb i:/mcu/gnu_tools_for_arm/11.3_rel1/bin/../lib/gcc/arm-none-eabi/11.3.1/thumb/v7e-m+fp/hard\libgcc.a(_arm_cmpdf2.o)
 .debug_line_str
                0x000002bb       0xdb i:/mcu/gnu_tools_for_arm/11.3_rel1/bin/../lib/gcc/arm-none-eabi/11.3.1/thumb/v7e-m+fp/hard\libgcc.a(_arm_unorddf2.o)
 .debug_line_str
                0x000002bb       0xdb i:/mcu/gnu_tools_for_arm/11.3_rel1/bin/../lib/gcc/arm-none-eabi/11.3.1/thumb/v7e-m+fp/hard\libgcc.a(_arm_fixdfsi.o)

.debug_info     0x00000000    0x2ca23
 .debug_info    0x00000000       0x24 i:/mcu/gnu_tools_for_arm/11.3_rel1/bin/../lib/gcc/arm-none-eabi/11.3.1/thumb/v7e-m+fp/hard/crt0.o
 .debug_info    0x00000024      0x303 build/main.o
 .debug_info    0x00000327      0x157 build/cpu.o
 .debug_info    0x0000047e      0xac7 build/cs.o
 .debug_info    0x00000f45     0x1158 build/flash.o
 .debug_info    0x0000209d      0x383 build/fpu.o
 .debug_info    0x00002420      0xa55 build/gpio.o
 .debug_info    0x00002e75      0x673 build/interrupt.o
 .debug_info    0x000034e8      0x2e1 build/mpu.o
 .debug_info    0x000037c9      0x89c build/pcm.o
 .debug_info    0x00004065      0x312 build/pss.o
 .debug_info    0x00004377      0x213 build/ref_a.o
 .debug_info    0x0000458a      0x2b6 build/reset.o
 .debug_info    0x00004840      0x5de build/rtc_c.o
 .debug_info    0x00004e1e      0x416 build/sysctl.o
 .debug_info    0x00005234      0x1c9 build/systick.o
 .debug_info    0x000053fd      0x776 build/uart.o
 .debug_info    0x00005b73      0x2bf build/wdt_a.o
 .debug_info    0x00005e32      0x14f build/startup_msp432p401r_gcc.o
 .debug_info    0x00005f81      0xd7d build/system_msp432p401r.o
 .debug_info    0x00006cfe      0x12a build/user_periph.o
 .debug_info    0x00006e28      0x69f build/syscalls.o
 .debug_info    0x000074c7      0x76a build/user_uart.o
 .debug_info    0x00007c31      0x413 build/user_dma.o
 .debug_info    0x00008044      0x77f build/iic_bus.o
 .debug_info    0x000087c3      0x10a i:/mcu/gnu_tools_for_arm/11.3_rel1/bin/../lib/gcc/arm-none-eabi/11.3.1/thumb/v7e-m+fp/hard\libc.a(libc_a-exit.o)
 .debug_info    0x000088cd     0x10a2 i:/mcu/gnu_tools_for_arm/11.3_rel1/bin/../lib/gcc/arm-none-eabi/11.3.1/thumb/v7e-m+fp/hard\libc.a(libc_a-findfp.o)
 .debug_info    0x0000996f      0x7ed i:/mcu/gnu_tools_for_arm/11.3_rel1/bin/../lib/gcc/arm-none-eabi/11.3.1/thumb/v7e-m+fp/hard\libc.a(libc_a-fwalk.o)
 .debug_info    0x0000a15c      0x89c i:/mcu/gnu_tools_for_arm/11.3_rel1/bin/../lib/gcc/arm-none-eabi/11.3.1/thumb/v7e-m+fp/hard\libc.a(libc_a-sprintf.o)
 .debug_info    0x0000a9f8      0xa6b i:/mcu/gnu_tools_for_arm/11.3_rel1/bin/../lib/gcc/arm-none-eabi/11.3.1/thumb/v7e-m+fp/hard\libc.a(libc_a-stdio.o)
 .debug_info    0x0000b463      0x135 i:/mcu/gnu_tools_for_arm/11.3_rel1/bin/../lib/gcc/arm-none-eabi/11.3.1/thumb/v7e-m+fp/hard\libc.a(libc_a-memset.o)
 .debug_info    0x0000b598      0x773 i:/mcu/gnu_tools_for_arm/11.3_rel1/bin/../lib/gcc/arm-none-eabi/11.3.1/thumb/v7e-m+fp/hard\libc.a(libc_a-closer.o)
 .debug_info    0x0000bd0b      0x7ee i:/mcu/gnu_tools_for_arm/11.3_rel1/bin/../lib/gcc/arm-none-eabi/11.3.1/thumb/v7e-m+fp/hard\libc.a(libc_a-reent.o)
 .debug_info    0x0000c4f9      0x732 i:/mcu/gnu_tools_for_arm/11.3_rel1/bin/../lib/gcc/arm-none-eabi/11.3.1/thumb/v7e-m+fp/hard\libc.a(libc_a-impure.o)
 .debug_info    0x0000cc2b      0x7b3 i:/mcu/gnu_tools_for_arm/11.3_rel1/bin/../lib/gcc/arm-none-eabi/11.3.1/thumb/v7e-m+fp/hard\libc.a(libc_a-lseekr.o)
 .debug_info    0x0000d3de      0x7ca i:/mcu/gnu_tools_for_arm/11.3_rel1/bin/../lib/gcc/arm-none-eabi/11.3.1/thumb/v7e-m+fp/hard\libc.a(libc_a-readr.o)
 .debug_info    0x0000dba8      0x7d0 i:/mcu/gnu_tools_for_arm/11.3_rel1/bin/../lib/gcc/arm-none-eabi/11.3.1/thumb/v7e-m+fp/hard\libc.a(libc_a-writer.o)
 .debug_info    0x0000e378      0x718 i:/mcu/gnu_tools_for_arm/11.3_rel1/bin/../lib/gcc/arm-none-eabi/11.3.1/thumb/v7e-m+fp/hard\libc.a(libc_a-errno.o)
 .debug_info    0x0000ea90      0x10b i:/mcu/gnu_tools_for_arm/11.3_rel1/bin/../lib/gcc/arm-none-eabi/11.3.1/thumb/v7e-m+fp/hard\libc.a(libc_a-init.o)
 .debug_info    0x0000eb9b      0x20a i:/mcu/gnu_tools_for_arm/11.3_rel1/bin/../lib/gcc/arm-none-eabi/11.3.1/thumb/v7e-m+fp/hard\libc.a(libc_a-lock.o)
 .debug_info    0x0000eda5      0x2dd i:/mcu/gnu_tools_for_arm/11.3_rel1/bin/../lib/gcc/arm-none-eabi/11.3.1/thumb/v7e-m+fp/hard\libc.a(libc_a-__call_atexit.o)
 .debug_info    0x0000f082      0x118 i:/mcu/gnu_tools_for_arm/11.3_rel1/bin/../lib/gcc/arm-none-eabi/11.3.1/thumb/v7e-m+fp/hard\libc.a(libc_a-atexit.o)
 .debug_info    0x0000f19a      0xb39 i:/mcu/gnu_tools_for_arm/11.3_rel1/bin/../lib/gcc/arm-none-eabi/11.3.1/thumb/v7e-m+fp/hard\libc.a(libc_a-freer.o)
 .debug_info    0x0000fcd3      0xcbd i:/mcu/gnu_tools_for_arm/11.3_rel1/bin/../lib/gcc/arm-none-eabi/11.3.1/thumb/v7e-m+fp/hard\libc.a(libc_a-mallocr.o)
 .debug_info    0x00010990      0x788 i:/mcu/gnu_tools_for_arm/11.3_rel1/bin/../lib/gcc/arm-none-eabi/11.3.1/thumb/v7e-m+fp/hard\libc.a(libc_a-mlock.o)
 .debug_info    0x00011118     0x1c80 i:/mcu/gnu_tools_for_arm/11.3_rel1/bin/../lib/gcc/arm-none-eabi/11.3.1/thumb/v7e-m+fp/hard\libc.a(libc_a-svfprintf.o)
 .debug_info    0x00012d98      0x8e4 i:/mcu/gnu_tools_for_arm/11.3_rel1/bin/../lib/gcc/arm-none-eabi/11.3.1/thumb/v7e-m+fp/hard\libc.a(libc_a-fclose.o)
 .debug_info    0x0001367c      0xab6 i:/mcu/gnu_tools_for_arm/11.3_rel1/bin/../lib/gcc/arm-none-eabi/11.3.1/thumb/v7e-m+fp/hard\libc.a(libc_a-fflush.o)
 .debug_info    0x00014132      0x14a i:/mcu/gnu_tools_for_arm/11.3_rel1/bin/../lib/gcc/arm-none-eabi/11.3.1/thumb/v7e-m+fp/hard\libc.a(libc_a-strncpy.o)
 .debug_info    0x0001427c     0x19b3 i:/mcu/gnu_tools_for_arm/11.3_rel1/bin/../lib/gcc/arm-none-eabi/11.3.1/thumb/v7e-m+fp/hard\libc.a(libc_a-locale.o)
 .debug_info    0x00015c2f      0xa4d i:/mcu/gnu_tools_for_arm/11.3_rel1/bin/../lib/gcc/arm-none-eabi/11.3.1/thumb/v7e-m+fp/hard\libc.a(libc_a-localeconv.o)
 .debug_info    0x0001667c      0x799 i:/mcu/gnu_tools_for_arm/11.3_rel1/bin/../lib/gcc/arm-none-eabi/11.3.1/thumb/v7e-m+fp/hard\libc.a(libc_a-sbrkr.o)
 .debug_info    0x00016e15       0xf7 i:/mcu/gnu_tools_for_arm/11.3_rel1/bin/../lib/gcc/arm-none-eabi/11.3.1/thumb/v7e-m+fp/hard\libc.a(libc_a-fini.o)
 .debug_info    0x00016f0c       0x25 i:/mcu/gnu_tools_for_arm/11.3_rel1/bin/../lib/gcc/arm-none-eabi/11.3.1/thumb/v7e-m+fp/hard\libc.a(libc_a-strcmp.o)
 .debug_info    0x00016f31       0xc3 i:/mcu/gnu_tools_for_arm/11.3_rel1/bin/../lib/gcc/arm-none-eabi/11.3.1/thumb/v7e-m+fp/hard\libc.a(libc_a-strcpy.o)
 .debug_info    0x00016ff4       0x25 i:/mcu/gnu_tools_for_arm/11.3_rel1/bin/../lib/gcc/arm-none-eabi/11.3.1/thumb/v7e-m+fp/hard\libc.a(libc_a-memchr.o)
 .debug_info    0x00017019       0x25 i:/mcu/gnu_tools_for_arm/11.3_rel1/bin/../lib/gcc/arm-none-eabi/11.3.1/thumb/v7e-m+fp/hard\libc.a(libc_a-strlen.o)
 .debug_info    0x0001703e      0x1e0 i:/mcu/gnu_tools_for_arm/11.3_rel1/bin/../lib/gcc/arm-none-eabi/11.3.1/thumb/v7e-m+fp/hard\libc.a(libm_a-s_frexp.o)
 .debug_info    0x0001721e      0x25f i:/mcu/gnu_tools_for_arm/11.3_rel1/bin/../lib/gcc/arm-none-eabi/11.3.1/thumb/v7e-m+fp/hard\libc.a(libc_a-__atexit.o)
 .debug_info    0x0001747d     0x18f9 i:/mcu/gnu_tools_for_arm/11.3_rel1/bin/../lib/gcc/arm-none-eabi/11.3.1/thumb/v7e-m+fp/hard\libc.a(libc_a-dtoa.o)
 .debug_info    0x00018d76      0x8a1 i:/mcu/gnu_tools_for_arm/11.3_rel1/bin/../lib/gcc/arm-none-eabi/11.3.1/thumb/v7e-m+fp/hard\libc.a(libc_a-getenv_r.o)
 .debug_info    0x00019617      0xf52 i:/mcu/gnu_tools_for_arm/11.3_rel1/bin/../lib/gcc/arm-none-eabi/11.3.1/thumb/v7e-m+fp/hard\libc.a(libc_a-mbtowc_r.o)
 .debug_info    0x0001a569     0x1e47 i:/mcu/gnu_tools_for_arm/11.3_rel1/bin/../lib/gcc/arm-none-eabi/11.3.1/thumb/v7e-m+fp/hard\libc.a(libc_a-mprec.o)
 .debug_info    0x0001c3b0      0xd5a i:/mcu/gnu_tools_for_arm/11.3_rel1/bin/../lib/gcc/arm-none-eabi/11.3.1/thumb/v7e-m+fp/hard\libc.a(libc_a-strtol.o)
 .debug_info    0x0001d10a      0xcf9 i:/mcu/gnu_tools_for_arm/11.3_rel1/bin/../lib/gcc/arm-none-eabi/11.3.1/thumb/v7e-m+fp/hard\libc.a(libc_a-wctomb_r.o)
 .debug_info    0x0001de03      0xb37 i:/mcu/gnu_tools_for_arm/11.3_rel1/bin/../lib/gcc/arm-none-eabi/11.3.1/thumb/v7e-m+fp/hard\libc.a(libc_a-wcrtomb.o)
 .debug_info    0x0001e93a      0x8a9 i:/mcu/gnu_tools_for_arm/11.3_rel1/bin/../lib/gcc/arm-none-eabi/11.3.1/thumb/v7e-m+fp/hard\libc.a(libc_a-wcsrtombs.o)
 .debug_info    0x0001f1e3      0x9e7 i:/mcu/gnu_tools_for_arm/11.3_rel1/bin/../lib/gcc/arm-none-eabi/11.3.1/thumb/v7e-m+fp/hard\libc.a(libc_a-ctype_.o)
 .debug_info    0x0001fbca     0x1554 i:/mcu/gnu_tools_for_arm/11.3_rel1/bin/../lib/gcc/arm-none-eabi/11.3.1/thumb/v7e-m+fp/hard\libc.a(libc_a-svfiprintf.o)
 .debug_info    0x0002111e      0x148 i:/mcu/gnu_tools_for_arm/11.3_rel1/bin/../lib/gcc/arm-none-eabi/11.3.1/thumb/v7e-m+fp/hard\libc.a(libc_a-memmove.o)
 .debug_info    0x00021266      0x157 i:/mcu/gnu_tools_for_arm/11.3_rel1/bin/../lib/gcc/arm-none-eabi/11.3.1/thumb/v7e-m+fp/hard\libc.a(libc_a-strcasecmp.o)
 .debug_info    0x000213bd      0x130 i:/mcu/gnu_tools_for_arm/11.3_rel1/bin/../lib/gcc/arm-none-eabi/11.3.1/thumb/v7e-m+fp/hard\libc.a(libc_a-strcat.o)
 .debug_info    0x000214ed      0x130 i:/mcu/gnu_tools_for_arm/11.3_rel1/bin/../lib/gcc/arm-none-eabi/11.3.1/thumb/v7e-m+fp/hard\libc.a(libc_a-strchr.o)
 .debug_info    0x0002161d      0x10d i:/mcu/gnu_tools_for_arm/11.3_rel1/bin/../lib/gcc/arm-none-eabi/11.3.1/thumb/v7e-m+fp/hard\libc.a(libc_a-strlcpy.o)
 .debug_info    0x0002172a      0x174 i:/mcu/gnu_tools_for_arm/11.3_rel1/bin/../lib/gcc/arm-none-eabi/11.3.1/thumb/v7e-m+fp/hard\libc.a(libc_a-strncasecmp.o)
 .debug_info    0x0002189e      0x108 i:/mcu/gnu_tools_for_arm/11.3_rel1/bin/../lib/gcc/arm-none-eabi/11.3.1/thumb/v7e-m+fp/hard\libc.a(libc_a-strncmp.o)
 .debug_info    0x000219a6       0x25 i:/mcu/gnu_tools_for_arm/11.3_rel1/bin/../lib/gcc/arm-none-eabi/11.3.1/thumb/v7e-m+fp/hard\libc.a(libc_a-memcpy.o)
 .debug_info    0x000219cb      0x83a i:/mcu/gnu_tools_for_arm/11.3_rel1/bin/../lib/gcc/arm-none-eabi/11.3.1/thumb/v7e-m+fp/hard\libc.a(libc_a-assert.o)
 .debug_info    0x00022205      0x8d0 i:/mcu/gnu_tools_for_arm/11.3_rel1/bin/../lib/gcc/arm-none-eabi/11.3.1/thumb/v7e-m+fp/hard\libc.a(libc_a-callocr.o)
 .debug_info    0x00022ad5      0x788 i:/mcu/gnu_tools_for_arm/11.3_rel1/bin/../lib/gcc/arm-none-eabi/11.3.1/thumb/v7e-m+fp/hard\libc.a(libc_a-envlock.o)
 .debug_info    0x0002325d      0xbed i:/mcu/gnu_tools_for_arm/11.3_rel1/bin/../lib/gcc/arm-none-eabi/11.3.1/thumb/v7e-m+fp/hard\libc.a(libc_a-reallocr.o)
 .debug_info    0x00023e4a      0xcd1 i:/mcu/gnu_tools_for_arm/11.3_rel1/bin/../lib/gcc/arm-none-eabi/11.3.1/thumb/v7e-m+fp/hard\libc.a(libc_a-wcsnrtombs.o)
 .debug_info    0x00024b1b      0x869 i:/mcu/gnu_tools_for_arm/11.3_rel1/bin/../lib/gcc/arm-none-eabi/11.3.1/thumb/v7e-m+fp/hard\libc.a(libc_a-fiprintf.o)
 .debug_info    0x00025384     0x1bc1 i:/mcu/gnu_tools_for_arm/11.3_rel1/bin/../lib/gcc/arm-none-eabi/11.3.1/thumb/v7e-m+fp/hard\libc.a(libc_a-vfiprintf.o)
 .debug_info    0x00026f45      0xb4b i:/mcu/gnu_tools_for_arm/11.3_rel1/bin/../lib/gcc/arm-none-eabi/11.3.1/thumb/v7e-m+fp/hard\libc.a(libc_a-fvwrite.o)
 .debug_info    0x00027a90      0x7d8 i:/mcu/gnu_tools_for_arm/11.3_rel1/bin/../lib/gcc/arm-none-eabi/11.3.1/thumb/v7e-m+fp/hard\libc.a(libc_a-wsetup.o)
 .debug_info    0x00028268      0xa97 i:/mcu/gnu_tools_for_arm/11.3_rel1/bin/../lib/gcc/arm-none-eabi/11.3.1/thumb/v7e-m+fp/hard\libc.a(libc_a-fputwc.o)
 .debug_info    0x00028cff       0xd8 i:/mcu/gnu_tools_for_arm/11.3_rel1/bin/../lib/gcc/arm-none-eabi/11.3.1/thumb/v7e-m+fp/hard\libc.a(libc_a-abort.o)
 .debug_info    0x00028dd7      0xc15 i:/mcu/gnu_tools_for_arm/11.3_rel1/bin/../lib/gcc/arm-none-eabi/11.3.1/thumb/v7e-m+fp/hard\libc.a(libc_a-makebuf.o)
 .debug_info    0x000299ec      0x87e i:/mcu/gnu_tools_for_arm/11.3_rel1/bin/../lib/gcc/arm-none-eabi/11.3.1/thumb/v7e-m+fp/hard\libc.a(libc_a-wbuf.o)
 .debug_info    0x0002a26a      0xd40 i:/mcu/gnu_tools_for_arm/11.3_rel1/bin/../lib/gcc/arm-none-eabi/11.3.1/thumb/v7e-m+fp/hard\libc.a(libc_a-signal.o)
 .debug_info    0x0002afaa      0x992 i:/mcu/gnu_tools_for_arm/11.3_rel1/bin/../lib/gcc/arm-none-eabi/11.3.1/thumb/v7e-m+fp/hard\libc.a(libc_a-fstatr.o)
 .debug_info    0x0002b93c      0x773 i:/mcu/gnu_tools_for_arm/11.3_rel1/bin/../lib/gcc/arm-none-eabi/11.3.1/thumb/v7e-m+fp/hard\libc.a(libc_a-isattyr.o)
 .debug_info    0x0002c0af      0x7fa i:/mcu/gnu_tools_for_arm/11.3_rel1/bin/../lib/gcc/arm-none-eabi/11.3.1/thumb/v7e-m+fp/hard\libc.a(libc_a-signalr.o)
 .debug_info    0x0002c8a9       0x9e i:/mcu/gnu_tools_for_arm/11.3_rel1/bin/../lib/gcc/arm-none-eabi/11.3.1/thumb/v7e-m+fp/hard\libnosys.a(sbrk.o)
 .debug_info    0x0002c947       0x25 i:/mcu/gnu_tools_for_arm/11.3_rel1/bin/../lib/gcc/arm-none-eabi/11.3.1/thumb/v7e-m+fp/hard\libgcc.a(_arm_muldf3.o)
 .debug_info    0x0002c96c       0x25 i:/mcu/gnu_tools_for_arm/11.3_rel1/bin/../lib/gcc/arm-none-eabi/11.3.1/thumb/v7e-m+fp/hard\libgcc.a(_arm_addsubdf3.o)
 .debug_info    0x0002c991       0x25 i:/mcu/gnu_tools_for_arm/11.3_rel1/bin/../lib/gcc/arm-none-eabi/11.3.1/thumb/v7e-m+fp/hard\libgcc.a(_arm_muldivdf3.o)
 .debug_info    0x0002c9b6       0x25 i:/mcu/gnu_tools_for_arm/11.3_rel1/bin/../lib/gcc/arm-none-eabi/11.3.1/thumb/v7e-m+fp/hard\libgcc.a(_arm_cmpdf2.o)
 .debug_info    0x0002c9db       0x24 i:/mcu/gnu_tools_for_arm/11.3_rel1/bin/../lib/gcc/arm-none-eabi/11.3.1/thumb/v7e-m+fp/hard\libgcc.a(_arm_unorddf2.o)
 .debug_info    0x0002c9ff       0x24 i:/mcu/gnu_tools_for_arm/11.3_rel1/bin/../lib/gcc/arm-none-eabi/11.3.1/thumb/v7e-m+fp/hard\libgcc.a(_arm_fixdfsi.o)

.debug_abbrev   0x00000000     0xb1f9
 .debug_abbrev  0x00000000       0x14 i:/mcu/gnu_tools_for_arm/11.3_rel1/bin/../lib/gcc/arm-none-eabi/11.3.1/thumb/v7e-m+fp/hard/crt0.o
 .debug_abbrev  0x00000014      0x1c3 build/main.o
 .debug_abbrev  0x000001d7       0xf9 build/cpu.o
 .debug_abbrev  0x000002d0      0x290 build/cs.o
 .debug_abbrev  0x00000560      0x32b build/flash.o
 .debug_abbrev  0x0000088b       0xeb build/fpu.o
 .debug_abbrev  0x00000976      0x219 build/gpio.o
 .debug_abbrev  0x00000b8f      0x256 build/interrupt.o
 .debug_abbrev  0x00000de5      0x181 build/mpu.o
 .debug_abbrev  0x00000f66      0x283 build/pcm.o
 .debug_abbrev  0x000011e9      0x15f build/pss.o
 .debug_abbrev  0x00001348       0xd0 build/ref_a.o
 .debug_abbrev  0x00001418      0x104 build/reset.o
 .debug_abbrev  0x0000151c      0x1fe build/rtc_c.o
 .debug_abbrev  0x0000171a      0x17f build/sysctl.o
 .debug_abbrev  0x00001899      0x150 build/systick.o
 .debug_abbrev  0x000019e9      0x202 build/uart.o
 .debug_abbrev  0x00001beb      0x167 build/wdt_a.o
 .debug_abbrev  0x00001d52       0xfe build/startup_msp432p401r_gcc.o
 .debug_abbrev  0x00001e50      0x127 build/system_msp432p401r.o
 .debug_abbrev  0x00001f77      0x10b build/user_periph.o
 .debug_abbrev  0x00002082      0x1b4 build/syscalls.o
 .debug_abbrev  0x00002236      0x1ff build/user_uart.o
 .debug_abbrev  0x00002435      0x140 build/user_dma.o
 .debug_abbrev  0x00002575      0x210 build/iic_bus.o
 .debug_abbrev  0x00002785       0xd5 i:/mcu/gnu_tools_for_arm/11.3_rel1/bin/../lib/gcc/arm-none-eabi/11.3.1/thumb/v7e-m+fp/hard\libc.a(libc_a-exit.o)
 .debug_abbrev  0x0000285a      0x462 i:/mcu/gnu_tools_for_arm/11.3_rel1/bin/../lib/gcc/arm-none-eabi/11.3.1/thumb/v7e-m+fp/hard\libc.a(libc_a-findfp.o)
 .debug_abbrev  0x00002cbc      0x1d9 i:/mcu/gnu_tools_for_arm/11.3_rel1/bin/../lib/gcc/arm-none-eabi/11.3.1/thumb/v7e-m+fp/hard\libc.a(libc_a-fwalk.o)
 .debug_abbrev  0x00002e95      0x258 i:/mcu/gnu_tools_for_arm/11.3_rel1/bin/../lib/gcc/arm-none-eabi/11.3.1/thumb/v7e-m+fp/hard\libc.a(libc_a-sprintf.o)
 .debug_abbrev  0x000030ed      0x260 i:/mcu/gnu_tools_for_arm/11.3_rel1/bin/../lib/gcc/arm-none-eabi/11.3.1/thumb/v7e-m+fp/hard\libc.a(libc_a-stdio.o)
 .debug_abbrev  0x0000334d       0xb7 i:/mcu/gnu_tools_for_arm/11.3_rel1/bin/../lib/gcc/arm-none-eabi/11.3.1/thumb/v7e-m+fp/hard\libc.a(libc_a-memset.o)
 .debug_abbrev  0x00003404      0x1ec i:/mcu/gnu_tools_for_arm/11.3_rel1/bin/../lib/gcc/arm-none-eabi/11.3.1/thumb/v7e-m+fp/hard\libc.a(libc_a-closer.o)
 .debug_abbrev  0x000035f0      0x22b i:/mcu/gnu_tools_for_arm/11.3_rel1/bin/../lib/gcc/arm-none-eabi/11.3.1/thumb/v7e-m+fp/hard\libc.a(libc_a-reent.o)
 .debug_abbrev  0x0000381b      0x185 i:/mcu/gnu_tools_for_arm/11.3_rel1/bin/../lib/gcc/arm-none-eabi/11.3.1/thumb/v7e-m+fp/hard\libc.a(libc_a-impure.o)
 .debug_abbrev  0x000039a0      0x200 i:/mcu/gnu_tools_for_arm/11.3_rel1/bin/../lib/gcc/arm-none-eabi/11.3.1/thumb/v7e-m+fp/hard\libc.a(libc_a-lseekr.o)
 .debug_abbrev  0x00003ba0      0x1ec i:/mcu/gnu_tools_for_arm/11.3_rel1/bin/../lib/gcc/arm-none-eabi/11.3.1/thumb/v7e-m+fp/hard\libc.a(libc_a-readr.o)
 .debug_abbrev  0x00003d8c      0x1f1 i:/mcu/gnu_tools_for_arm/11.3_rel1/bin/../lib/gcc/arm-none-eabi/11.3.1/thumb/v7e-m+fp/hard\libc.a(libc_a-writer.o)
 .debug_abbrev  0x00003f7d      0x19a i:/mcu/gnu_tools_for_arm/11.3_rel1/bin/../lib/gcc/arm-none-eabi/11.3.1/thumb/v7e-m+fp/hard\libc.a(libc_a-errno.o)
 .debug_abbrev  0x00004117       0xc9 i:/mcu/gnu_tools_for_arm/11.3_rel1/bin/../lib/gcc/arm-none-eabi/11.3.1/thumb/v7e-m+fp/hard\libc.a(libc_a-init.o)
 .debug_abbrev  0x000041e0      0x115 i:/mcu/gnu_tools_for_arm/11.3_rel1/bin/../lib/gcc/arm-none-eabi/11.3.1/thumb/v7e-m+fp/hard\libc.a(libc_a-lock.o)
 .debug_abbrev  0x000042f5      0x20c i:/mcu/gnu_tools_for_arm/11.3_rel1/bin/../lib/gcc/arm-none-eabi/11.3.1/thumb/v7e-m+fp/hard\libc.a(libc_a-__call_atexit.o)
 .debug_abbrev  0x00004501       0xc1 i:/mcu/gnu_tools_for_arm/11.3_rel1/bin/../lib/gcc/arm-none-eabi/11.3.1/thumb/v7e-m+fp/hard\libc.a(libc_a-atexit.o)
 .debug_abbrev  0x000045c2      0x290 i:/mcu/gnu_tools_for_arm/11.3_rel1/bin/../lib/gcc/arm-none-eabi/11.3.1/thumb/v7e-m+fp/hard\libc.a(libc_a-freer.o)
 .debug_abbrev  0x00004852      0x2d7 i:/mcu/gnu_tools_for_arm/11.3_rel1/bin/../lib/gcc/arm-none-eabi/11.3.1/thumb/v7e-m+fp/hard\libc.a(libc_a-mallocr.o)
 .debug_abbrev  0x00004b29      0x1fb i:/mcu/gnu_tools_for_arm/11.3_rel1/bin/../lib/gcc/arm-none-eabi/11.3.1/thumb/v7e-m+fp/hard\libc.a(libc_a-mlock.o)
 .debug_abbrev  0x00004d24      0x45a i:/mcu/gnu_tools_for_arm/11.3_rel1/bin/../lib/gcc/arm-none-eabi/11.3.1/thumb/v7e-m+fp/hard\libc.a(libc_a-svfprintf.o)
 .debug_abbrev  0x0000517e      0x2a2 i:/mcu/gnu_tools_for_arm/11.3_rel1/bin/../lib/gcc/arm-none-eabi/11.3.1/thumb/v7e-m+fp/hard\libc.a(libc_a-fclose.o)
 .debug_abbrev  0x00005420      0x326 i:/mcu/gnu_tools_for_arm/11.3_rel1/bin/../lib/gcc/arm-none-eabi/11.3.1/thumb/v7e-m+fp/hard\libc.a(libc_a-fflush.o)
 .debug_abbrev  0x00005746       0xbe i:/mcu/gnu_tools_for_arm/11.3_rel1/bin/../lib/gcc/arm-none-eabi/11.3.1/thumb/v7e-m+fp/hard\libc.a(libc_a-strncpy.o)
 .debug_abbrev  0x00005804      0x443 i:/mcu/gnu_tools_for_arm/11.3_rel1/bin/../lib/gcc/arm-none-eabi/11.3.1/thumb/v7e-m+fp/hard\libc.a(libc_a-locale.o)
 .debug_abbrev  0x00005c47      0x287 i:/mcu/gnu_tools_for_arm/11.3_rel1/bin/../lib/gcc/arm-none-eabi/11.3.1/thumb/v7e-m+fp/hard\libc.a(libc_a-localeconv.o)
 .debug_abbrev  0x00005ece      0x216 i:/mcu/gnu_tools_for_arm/11.3_rel1/bin/../lib/gcc/arm-none-eabi/11.3.1/thumb/v7e-m+fp/hard\libc.a(libc_a-sbrkr.o)
 .debug_abbrev  0x000060e4       0xcc i:/mcu/gnu_tools_for_arm/11.3_rel1/bin/../lib/gcc/arm-none-eabi/11.3.1/thumb/v7e-m+fp/hard\libc.a(libc_a-fini.o)
 .debug_abbrev  0x000061b0       0x14 i:/mcu/gnu_tools_for_arm/11.3_rel1/bin/../lib/gcc/arm-none-eabi/11.3.1/thumb/v7e-m+fp/hard\libc.a(libc_a-strcmp.o)
 .debug_abbrev  0x000061c4       0x7b i:/mcu/gnu_tools_for_arm/11.3_rel1/bin/../lib/gcc/arm-none-eabi/11.3.1/thumb/v7e-m+fp/hard\libc.a(libc_a-strcpy.o)
 .debug_abbrev  0x0000623f       0x14 i:/mcu/gnu_tools_for_arm/11.3_rel1/bin/../lib/gcc/arm-none-eabi/11.3.1/thumb/v7e-m+fp/hard\libc.a(libc_a-memchr.o)
 .debug_abbrev  0x00006253       0x14 i:/mcu/gnu_tools_for_arm/11.3_rel1/bin/../lib/gcc/arm-none-eabi/11.3.1/thumb/v7e-m+fp/hard\libc.a(libc_a-strlen.o)
 .debug_abbrev  0x00006267      0x162 i:/mcu/gnu_tools_for_arm/11.3_rel1/bin/../lib/gcc/arm-none-eabi/11.3.1/thumb/v7e-m+fp/hard\libc.a(libm_a-s_frexp.o)
 .debug_abbrev  0x000063c9      0x189 i:/mcu/gnu_tools_for_arm/11.3_rel1/bin/../lib/gcc/arm-none-eabi/11.3.1/thumb/v7e-m+fp/hard\libc.a(libc_a-__atexit.o)
 .debug_abbrev  0x00006552      0x36d i:/mcu/gnu_tools_for_arm/11.3_rel1/bin/../lib/gcc/arm-none-eabi/11.3.1/thumb/v7e-m+fp/hard\libc.a(libc_a-dtoa.o)
 .debug_abbrev  0x000068bf      0x242 i:/mcu/gnu_tools_for_arm/11.3_rel1/bin/../lib/gcc/arm-none-eabi/11.3.1/thumb/v7e-m+fp/hard\libc.a(libc_a-getenv_r.o)
 .debug_abbrev  0x00006b01      0x32f i:/mcu/gnu_tools_for_arm/11.3_rel1/bin/../lib/gcc/arm-none-eabi/11.3.1/thumb/v7e-m+fp/hard\libc.a(libc_a-mbtowc_r.o)
 .debug_abbrev  0x00006e30      0x4e1 i:/mcu/gnu_tools_for_arm/11.3_rel1/bin/../lib/gcc/arm-none-eabi/11.3.1/thumb/v7e-m+fp/hard\libc.a(libc_a-mprec.o)
 .debug_abbrev  0x00007311      0x330 i:/mcu/gnu_tools_for_arm/11.3_rel1/bin/../lib/gcc/arm-none-eabi/11.3.1/thumb/v7e-m+fp/hard\libc.a(libc_a-strtol.o)
 .debug_abbrev  0x00007641      0x29a i:/mcu/gnu_tools_for_arm/11.3_rel1/bin/../lib/gcc/arm-none-eabi/11.3.1/thumb/v7e-m+fp/hard\libc.a(libc_a-wctomb_r.o)
 .debug_abbrev  0x000078db      0x25c i:/mcu/gnu_tools_for_arm/11.3_rel1/bin/../lib/gcc/arm-none-eabi/11.3.1/thumb/v7e-m+fp/hard\libc.a(libc_a-wcrtomb.o)
 .debug_abbrev  0x00007b37      0x20e i:/mcu/gnu_tools_for_arm/11.3_rel1/bin/../lib/gcc/arm-none-eabi/11.3.1/thumb/v7e-m+fp/hard\libc.a(libc_a-wcsrtombs.o)
 .debug_abbrev  0x00007d45      0x20b i:/mcu/gnu_tools_for_arm/11.3_rel1/bin/../lib/gcc/arm-none-eabi/11.3.1/thumb/v7e-m+fp/hard\libc.a(libc_a-ctype_.o)
 .debug_abbrev  0x00007f50      0x367 i:/mcu/gnu_tools_for_arm/11.3_rel1/bin/../lib/gcc/arm-none-eabi/11.3.1/thumb/v7e-m+fp/hard\libc.a(libc_a-svfiprintf.o)
 .debug_abbrev  0x000082b7       0xc3 i:/mcu/gnu_tools_for_arm/11.3_rel1/bin/../lib/gcc/arm-none-eabi/11.3.1/thumb/v7e-m+fp/hard\libc.a(libc_a-memmove.o)
 .debug_abbrev  0x0000837a       0xb2 i:/mcu/gnu_tools_for_arm/11.3_rel1/bin/../lib/gcc/arm-none-eabi/11.3.1/thumb/v7e-m+fp/hard\libc.a(libc_a-strcasecmp.o)
 .debug_abbrev  0x0000842c       0xce i:/mcu/gnu_tools_for_arm/11.3_rel1/bin/../lib/gcc/arm-none-eabi/11.3.1/thumb/v7e-m+fp/hard\libc.a(libc_a-strcat.o)
 .debug_abbrev  0x000084fa       0x97 i:/mcu/gnu_tools_for_arm/11.3_rel1/bin/../lib/gcc/arm-none-eabi/11.3.1/thumb/v7e-m+fp/hard\libc.a(libc_a-strchr.o)
 .debug_abbrev  0x00008591       0xa3 i:/mcu/gnu_tools_for_arm/11.3_rel1/bin/../lib/gcc/arm-none-eabi/11.3.1/thumb/v7e-m+fp/hard\libc.a(libc_a-strlcpy.o)
 .debug_abbrev  0x00008634       0xc1 i:/mcu/gnu_tools_for_arm/11.3_rel1/bin/../lib/gcc/arm-none-eabi/11.3.1/thumb/v7e-m+fp/hard\libc.a(libc_a-strncasecmp.o)
 .debug_abbrev  0x000086f5       0x92 i:/mcu/gnu_tools_for_arm/11.3_rel1/bin/../lib/gcc/arm-none-eabi/11.3.1/thumb/v7e-m+fp/hard\libc.a(libc_a-strncmp.o)
 .debug_abbrev  0x00008787       0x14 i:/mcu/gnu_tools_for_arm/11.3_rel1/bin/../lib/gcc/arm-none-eabi/11.3.1/thumb/v7e-m+fp/hard\libc.a(libc_a-memcpy.o)
 .debug_abbrev  0x0000879b      0x226 i:/mcu/gnu_tools_for_arm/11.3_rel1/bin/../lib/gcc/arm-none-eabi/11.3.1/thumb/v7e-m+fp/hard\libc.a(libc_a-assert.o)
 .debug_abbrev  0x000089c1      0x25b i:/mcu/gnu_tools_for_arm/11.3_rel1/bin/../lib/gcc/arm-none-eabi/11.3.1/thumb/v7e-m+fp/hard\libc.a(libc_a-callocr.o)
 .debug_abbrev  0x00008c1c      0x1fb i:/mcu/gnu_tools_for_arm/11.3_rel1/bin/../lib/gcc/arm-none-eabi/11.3.1/thumb/v7e-m+fp/hard\libc.a(libc_a-envlock.o)
 .debug_abbrev  0x00008e17      0x26f i:/mcu/gnu_tools_for_arm/11.3_rel1/bin/../lib/gcc/arm-none-eabi/11.3.1/thumb/v7e-m+fp/hard\libc.a(libc_a-reallocr.o)
 .debug_abbrev  0x00009086      0x2a3 i:/mcu/gnu_tools_for_arm/11.3_rel1/bin/../lib/gcc/arm-none-eabi/11.3.1/thumb/v7e-m+fp/hard\libc.a(libc_a-wcsnrtombs.o)
 .debug_abbrev  0x00009329      0x252 i:/mcu/gnu_tools_for_arm/11.3_rel1/bin/../lib/gcc/arm-none-eabi/11.3.1/thumb/v7e-m+fp/hard\libc.a(libc_a-fiprintf.o)
 .debug_abbrev  0x0000957b      0x4af i:/mcu/gnu_tools_for_arm/11.3_rel1/bin/../lib/gcc/arm-none-eabi/11.3.1/thumb/v7e-m+fp/hard\libc.a(libc_a-vfiprintf.o)
 .debug_abbrev  0x00009a2a      0x257 i:/mcu/gnu_tools_for_arm/11.3_rel1/bin/../lib/gcc/arm-none-eabi/11.3.1/thumb/v7e-m+fp/hard\libc.a(libc_a-fvwrite.o)
 .debug_abbrev  0x00009c81      0x21e i:/mcu/gnu_tools_for_arm/11.3_rel1/bin/../lib/gcc/arm-none-eabi/11.3.1/thumb/v7e-m+fp/hard\libc.a(libc_a-wsetup.o)
 .debug_abbrev  0x00009e9f      0x33f i:/mcu/gnu_tools_for_arm/11.3_rel1/bin/../lib/gcc/arm-none-eabi/11.3.1/thumb/v7e-m+fp/hard\libc.a(libc_a-fputwc.o)
 .debug_abbrev  0x0000a1de       0x99 i:/mcu/gnu_tools_for_arm/11.3_rel1/bin/../lib/gcc/arm-none-eabi/11.3.1/thumb/v7e-m+fp/hard\libc.a(libc_a-abort.o)
 .debug_abbrev  0x0000a277      0x2c1 i:/mcu/gnu_tools_for_arm/11.3_rel1/bin/../lib/gcc/arm-none-eabi/11.3.1/thumb/v7e-m+fp/hard\libc.a(libc_a-makebuf.o)
 .debug_abbrev  0x0000a538      0x272 i:/mcu/gnu_tools_for_arm/11.3_rel1/bin/../lib/gcc/arm-none-eabi/11.3.1/thumb/v7e-m+fp/hard\libc.a(libc_a-wbuf.o)
 .debug_abbrev  0x0000a7aa      0x312 i:/mcu/gnu_tools_for_arm/11.3_rel1/bin/../lib/gcc/arm-none-eabi/11.3.1/thumb/v7e-m+fp/hard\libc.a(libc_a-signal.o)
 .debug_abbrev  0x0000aabc      0x1ff i:/mcu/gnu_tools_for_arm/11.3_rel1/bin/../lib/gcc/arm-none-eabi/11.3.1/thumb/v7e-m+fp/hard\libc.a(libc_a-fstatr.o)
 .debug_abbrev  0x0000acbb      0x1ec i:/mcu/gnu_tools_for_arm/11.3_rel1/bin/../lib/gcc/arm-none-eabi/11.3.1/thumb/v7e-m+fp/hard\libc.a(libc_a-isattyr.o)
 .debug_abbrev  0x0000aea7      0x239 i:/mcu/gnu_tools_for_arm/11.3_rel1/bin/../lib/gcc/arm-none-eabi/11.3.1/thumb/v7e-m+fp/hard\libc.a(libc_a-signalr.o)
 .debug_abbrev  0x0000b0e0       0xa1 i:/mcu/gnu_tools_for_arm/11.3_rel1/bin/../lib/gcc/arm-none-eabi/11.3.1/thumb/v7e-m+fp/hard\libnosys.a(sbrk.o)
 .debug_abbrev  0x0000b181       0x14 i:/mcu/gnu_tools_for_arm/11.3_rel1/bin/../lib/gcc/arm-none-eabi/11.3.1/thumb/v7e-m+fp/hard\libgcc.a(_arm_muldf3.o)
 .debug_abbrev  0x0000b195       0x14 i:/mcu/gnu_tools_for_arm/11.3_rel1/bin/../lib/gcc/arm-none-eabi/11.3.1/thumb/v7e-m+fp/hard\libgcc.a(_arm_addsubdf3.o)
 .debug_abbrev  0x0000b1a9       0x14 i:/mcu/gnu_tools_for_arm/11.3_rel1/bin/../lib/gcc/arm-none-eabi/11.3.1/thumb/v7e-m+fp/hard\libgcc.a(_arm_muldivdf3.o)
 .debug_abbrev  0x0000b1bd       0x14 i:/mcu/gnu_tools_for_arm/11.3_rel1/bin/../lib/gcc/arm-none-eabi/11.3.1/thumb/v7e-m+fp/hard\libgcc.a(_arm_cmpdf2.o)
 .debug_abbrev  0x0000b1d1       0x14 i:/mcu/gnu_tools_for_arm/11.3_rel1/bin/../lib/gcc/arm-none-eabi/11.3.1/thumb/v7e-m+fp/hard\libgcc.a(_arm_unorddf2.o)
 .debug_abbrev  0x0000b1e5       0x14 i:/mcu/gnu_tools_for_arm/11.3_rel1/bin/../lib/gcc/arm-none-eabi/11.3.1/thumb/v7e-m+fp/hard\libgcc.a(_arm_fixdfsi.o)

.debug_aranges  0x00000000      0xf50
 .debug_aranges
                0x00000000       0x20 i:/mcu/gnu_tools_for_arm/11.3_rel1/bin/../lib/gcc/arm-none-eabi/11.3.1/thumb/v7e-m+fp/hard/crt0.o
 .debug_aranges
                0x00000020       0x20 build/main.o
 .debug_aranges
                0x00000040       0x20 build/cpu.o
 .debug_aranges
                0x00000060       0x20 build/cs.o
 .debug_aranges
                0x00000080       0x20 build/flash.o
 .debug_aranges
                0x000000a0       0x20 build/fpu.o
 .debug_aranges
                0x000000c0       0x20 build/gpio.o
 .debug_aranges
                0x000000e0       0x20 build/interrupt.o
 .debug_aranges
                0x00000100       0x20 build/mpu.o
 .debug_aranges
                0x00000120       0x20 build/pcm.o
 .debug_aranges
                0x00000140       0x20 build/pss.o
 .debug_aranges
                0x00000160       0x20 build/ref_a.o
 .debug_aranges
                0x00000180       0x20 build/reset.o
 .debug_aranges
                0x000001a0       0x20 build/rtc_c.o
 .debug_aranges
                0x000001c0       0x20 build/sysctl.o
 .debug_aranges
                0x000001e0       0x20 build/systick.o
 .debug_aranges
                0x00000200       0x20 build/uart.o
 .debug_aranges
                0x00000220       0x20 build/wdt_a.o
 .debug_aranges
                0x00000240       0x20 build/startup_msp432p401r_gcc.o
 .debug_aranges
                0x00000260       0x20 build/system_msp432p401r.o
 .debug_aranges
                0x00000280       0x20 build/user_periph.o
 .debug_aranges
                0x000002a0       0x20 build/syscalls.o
 .debug_aranges
                0x000002c0       0x20 build/user_uart.o
 .debug_aranges
                0x000002e0       0x20 build/user_dma.o
 .debug_aranges
                0x00000300       0x20 build/iic_bus.o
 .debug_aranges
                0x00000320       0x20 i:/mcu/gnu_tools_for_arm/11.3_rel1/bin/../lib/gcc/arm-none-eabi/11.3.1/thumb/v7e-m+fp/hard\libc.a(libc_a-exit.o)
 .debug_aranges
                0x00000340       0x70 i:/mcu/gnu_tools_for_arm/11.3_rel1/bin/../lib/gcc/arm-none-eabi/11.3.1/thumb/v7e-m+fp/hard\libc.a(libc_a-findfp.o)
 .debug_aranges
                0x000003b0       0x20 i:/mcu/gnu_tools_for_arm/11.3_rel1/bin/../lib/gcc/arm-none-eabi/11.3.1/thumb/v7e-m+fp/hard\libc.a(libc_a-fwalk.o)
 .debug_aranges
                0x000003d0       0x28 i:/mcu/gnu_tools_for_arm/11.3_rel1/bin/../lib/gcc/arm-none-eabi/11.3.1/thumb/v7e-m+fp/hard\libc.a(libc_a-sprintf.o)
 .debug_aranges
                0x000003f8       0x40 i:/mcu/gnu_tools_for_arm/11.3_rel1/bin/../lib/gcc/arm-none-eabi/11.3.1/thumb/v7e-m+fp/hard\libc.a(libc_a-stdio.o)
 .debug_aranges
                0x00000438       0x20 i:/mcu/gnu_tools_for_arm/11.3_rel1/bin/../lib/gcc/arm-none-eabi/11.3.1/thumb/v7e-m+fp/hard\libc.a(libc_a-memset.o)
 .debug_aranges
                0x00000458       0x20 i:/mcu/gnu_tools_for_arm/11.3_rel1/bin/../lib/gcc/arm-none-eabi/11.3.1/thumb/v7e-m+fp/hard\libc.a(libc_a-closer.o)
 .debug_aranges
                0x00000478       0x20 i:/mcu/gnu_tools_for_arm/11.3_rel1/bin/../lib/gcc/arm-none-eabi/11.3.1/thumb/v7e-m+fp/hard\libc.a(libc_a-reent.o)
 .debug_aranges
                0x00000498       0x18 i:/mcu/gnu_tools_for_arm/11.3_rel1/bin/../lib/gcc/arm-none-eabi/11.3.1/thumb/v7e-m+fp/hard\libc.a(libc_a-impure.o)
 .debug_aranges
                0x000004b0       0x20 i:/mcu/gnu_tools_for_arm/11.3_rel1/bin/../lib/gcc/arm-none-eabi/11.3.1/thumb/v7e-m+fp/hard\libc.a(libc_a-lseekr.o)
 .debug_aranges
                0x000004d0       0x20 i:/mcu/gnu_tools_for_arm/11.3_rel1/bin/../lib/gcc/arm-none-eabi/11.3.1/thumb/v7e-m+fp/hard\libc.a(libc_a-readr.o)
 .debug_aranges
                0x000004f0       0x20 i:/mcu/gnu_tools_for_arm/11.3_rel1/bin/../lib/gcc/arm-none-eabi/11.3.1/thumb/v7e-m+fp/hard\libc.a(libc_a-writer.o)
 .debug_aranges
                0x00000510       0x20 i:/mcu/gnu_tools_for_arm/11.3_rel1/bin/../lib/gcc/arm-none-eabi/11.3.1/thumb/v7e-m+fp/hard\libc.a(libc_a-errno.o)
 .debug_aranges
                0x00000530       0x20 i:/mcu/gnu_tools_for_arm/11.3_rel1/bin/../lib/gcc/arm-none-eabi/11.3.1/thumb/v7e-m+fp/hard\libc.a(libc_a-init.o)
 .debug_aranges
                0x00000550       0x28 i:/mcu/gnu_tools_for_arm/11.3_rel1/bin/../lib/gcc/arm-none-eabi/11.3.1/thumb/v7e-m+fp/hard\libc.a(libc_a-lock.o)
 .debug_aranges
                0x00000578       0x28 i:/mcu/gnu_tools_for_arm/11.3_rel1/bin/../lib/gcc/arm-none-eabi/11.3.1/thumb/v7e-m+fp/hard\libc.a(libc_a-__call_atexit.o)
 .debug_aranges
                0x000005a0       0x20 i:/mcu/gnu_tools_for_arm/11.3_rel1/bin/../lib/gcc/arm-none-eabi/11.3.1/thumb/v7e-m+fp/hard\libc.a(libc_a-atexit.o)
 .debug_aranges
                0x000005c0       0x28 i:/mcu/gnu_tools_for_arm/11.3_rel1/bin/../lib/gcc/arm-none-eabi/11.3.1/thumb/v7e-m+fp/hard\libc.a(libc_a-freer.o)
 .debug_aranges
                0x000005e8       0x20 i:/mcu/gnu_tools_for_arm/11.3_rel1/bin/../lib/gcc/arm-none-eabi/11.3.1/thumb/v7e-m+fp/hard\libc.a(libc_a-mallocr.o)
 .debug_aranges
                0x00000608       0x28 i:/mcu/gnu_tools_for_arm/11.3_rel1/bin/../lib/gcc/arm-none-eabi/11.3.1/thumb/v7e-m+fp/hard\libc.a(libc_a-mlock.o)
 .debug_aranges
                0x00000630       0x20 i:/mcu/gnu_tools_for_arm/11.3_rel1/bin/../lib/gcc/arm-none-eabi/11.3.1/thumb/v7e-m+fp/hard\libc.a(libc_a-svfprintf.o)
 .debug_aranges
                0x00000650       0x28 i:/mcu/gnu_tools_for_arm/11.3_rel1/bin/../lib/gcc/arm-none-eabi/11.3.1/thumb/v7e-m+fp/hard\libc.a(libc_a-fclose.o)
 .debug_aranges
                0x00000678       0x30 i:/mcu/gnu_tools_for_arm/11.3_rel1/bin/../lib/gcc/arm-none-eabi/11.3.1/thumb/v7e-m+fp/hard\libc.a(libc_a-fflush.o)
 .debug_aranges
                0x000006a8       0x20 i:/mcu/gnu_tools_for_arm/11.3_rel1/bin/../lib/gcc/arm-none-eabi/11.3.1/thumb/v7e-m+fp/hard\libc.a(libc_a-strncpy.o)
 .debug_aranges
                0x000006c8       0x50 i:/mcu/gnu_tools_for_arm/11.3_rel1/bin/../lib/gcc/arm-none-eabi/11.3.1/thumb/v7e-m+fp/hard\libc.a(libc_a-locale.o)
 .debug_aranges
                0x00000718       0x30 i:/mcu/gnu_tools_for_arm/11.3_rel1/bin/../lib/gcc/arm-none-eabi/11.3.1/thumb/v7e-m+fp/hard\libc.a(libc_a-localeconv.o)
 .debug_aranges
                0x00000748       0x20 i:/mcu/gnu_tools_for_arm/11.3_rel1/bin/../lib/gcc/arm-none-eabi/11.3.1/thumb/v7e-m+fp/hard\libc.a(libc_a-sbrkr.o)
 .debug_aranges
                0x00000768       0x20 i:/mcu/gnu_tools_for_arm/11.3_rel1/bin/../lib/gcc/arm-none-eabi/11.3.1/thumb/v7e-m+fp/hard\libc.a(libc_a-fini.o)
 .debug_aranges
                0x00000788       0x20 i:/mcu/gnu_tools_for_arm/11.3_rel1/bin/../lib/gcc/arm-none-eabi/11.3.1/thumb/v7e-m+fp/hard\libc.a(libc_a-strcmp.o)
 .debug_aranges
                0x000007a8       0x20 i:/mcu/gnu_tools_for_arm/11.3_rel1/bin/../lib/gcc/arm-none-eabi/11.3.1/thumb/v7e-m+fp/hard\libc.a(libc_a-strcpy.o)
 .debug_aranges
                0x000007c8       0x20 i:/mcu/gnu_tools_for_arm/11.3_rel1/bin/../lib/gcc/arm-none-eabi/11.3.1/thumb/v7e-m+fp/hard\libc.a(libc_a-memchr.o)
 .debug_aranges
                0x000007e8       0x20 i:/mcu/gnu_tools_for_arm/11.3_rel1/bin/../lib/gcc/arm-none-eabi/11.3.1/thumb/v7e-m+fp/hard\libc.a(libc_a-strlen.o)
 .debug_aranges
                0x00000808       0x20 i:/mcu/gnu_tools_for_arm/11.3_rel1/bin/../lib/gcc/arm-none-eabi/11.3.1/thumb/v7e-m+fp/hard\libc.a(libm_a-s_frexp.o)
 .debug_aranges
                0x00000828       0x20 i:/mcu/gnu_tools_for_arm/11.3_rel1/bin/../lib/gcc/arm-none-eabi/11.3.1/thumb/v7e-m+fp/hard\libc.a(libc_a-__atexit.o)
 .debug_aranges
                0x00000848       0x28 i:/mcu/gnu_tools_for_arm/11.3_rel1/bin/../lib/gcc/arm-none-eabi/11.3.1/thumb/v7e-m+fp/hard\libc.a(libc_a-dtoa.o)
 .debug_aranges
                0x00000870       0x28 i:/mcu/gnu_tools_for_arm/11.3_rel1/bin/../lib/gcc/arm-none-eabi/11.3.1/thumb/v7e-m+fp/hard\libc.a(libc_a-getenv_r.o)
 .debug_aranges
                0x00000898       0x48 i:/mcu/gnu_tools_for_arm/11.3_rel1/bin/../lib/gcc/arm-none-eabi/11.3.1/thumb/v7e-m+fp/hard\libc.a(libc_a-mbtowc_r.o)
 .debug_aranges
                0x000008e0       0xb0 i:/mcu/gnu_tools_for_arm/11.3_rel1/bin/../lib/gcc/arm-none-eabi/11.3.1/thumb/v7e-m+fp/hard\libc.a(libc_a-mprec.o)
 .debug_aranges
                0x00000990       0x38 i:/mcu/gnu_tools_for_arm/11.3_rel1/bin/../lib/gcc/arm-none-eabi/11.3.1/thumb/v7e-m+fp/hard\libc.a(libc_a-strtol.o)
 .debug_aranges
                0x000009c8       0x48 i:/mcu/gnu_tools_for_arm/11.3_rel1/bin/../lib/gcc/arm-none-eabi/11.3.1/thumb/v7e-m+fp/hard\libc.a(libc_a-wctomb_r.o)
 .debug_aranges
                0x00000a10       0x28 i:/mcu/gnu_tools_for_arm/11.3_rel1/bin/../lib/gcc/arm-none-eabi/11.3.1/thumb/v7e-m+fp/hard\libc.a(libc_a-wcrtomb.o)
 .debug_aranges
                0x00000a38       0x28 i:/mcu/gnu_tools_for_arm/11.3_rel1/bin/../lib/gcc/arm-none-eabi/11.3.1/thumb/v7e-m+fp/hard\libc.a(libc_a-wcsrtombs.o)
 .debug_aranges
                0x00000a60       0x20 i:/mcu/gnu_tools_for_arm/11.3_rel1/bin/../lib/gcc/arm-none-eabi/11.3.1/thumb/v7e-m+fp/hard\libc.a(libc_a-ctype_.o)
 .debug_aranges
                0x00000a80       0x28 i:/mcu/gnu_tools_for_arm/11.3_rel1/bin/../lib/gcc/arm-none-eabi/11.3.1/thumb/v7e-m+fp/hard\libc.a(libc_a-svfiprintf.o)
 .debug_aranges
                0x00000aa8       0x20 i:/mcu/gnu_tools_for_arm/11.3_rel1/bin/../lib/gcc/arm-none-eabi/11.3.1/thumb/v7e-m+fp/hard\libc.a(libc_a-memmove.o)
 .debug_aranges
                0x00000ac8       0x20 i:/mcu/gnu_tools_for_arm/11.3_rel1/bin/../lib/gcc/arm-none-eabi/11.3.1/thumb/v7e-m+fp/hard\libc.a(libc_a-strcasecmp.o)
 .debug_aranges
                0x00000ae8       0x20 i:/mcu/gnu_tools_for_arm/11.3_rel1/bin/../lib/gcc/arm-none-eabi/11.3.1/thumb/v7e-m+fp/hard\libc.a(libc_a-strcat.o)
 .debug_aranges
                0x00000b08       0x20 i:/mcu/gnu_tools_for_arm/11.3_rel1/bin/../lib/gcc/arm-none-eabi/11.3.1/thumb/v7e-m+fp/hard\libc.a(libc_a-strchr.o)
 .debug_aranges
                0x00000b28       0x20 i:/mcu/gnu_tools_for_arm/11.3_rel1/bin/../lib/gcc/arm-none-eabi/11.3.1/thumb/v7e-m+fp/hard\libc.a(libc_a-strlcpy.o)
 .debug_aranges
                0x00000b48       0x20 i:/mcu/gnu_tools_for_arm/11.3_rel1/bin/../lib/gcc/arm-none-eabi/11.3.1/thumb/v7e-m+fp/hard\libc.a(libc_a-strncasecmp.o)
 .debug_aranges
                0x00000b68       0x20 i:/mcu/gnu_tools_for_arm/11.3_rel1/bin/../lib/gcc/arm-none-eabi/11.3.1/thumb/v7e-m+fp/hard\libc.a(libc_a-strncmp.o)
 .debug_aranges
                0x00000b88       0x20 i:/mcu/gnu_tools_for_arm/11.3_rel1/bin/../lib/gcc/arm-none-eabi/11.3.1/thumb/v7e-m+fp/hard\libc.a(libc_a-memcpy.o)
 .debug_aranges
                0x00000ba8       0x28 i:/mcu/gnu_tools_for_arm/11.3_rel1/bin/../lib/gcc/arm-none-eabi/11.3.1/thumb/v7e-m+fp/hard\libc.a(libc_a-assert.o)
 .debug_aranges
                0x00000bd0       0x20 i:/mcu/gnu_tools_for_arm/11.3_rel1/bin/../lib/gcc/arm-none-eabi/11.3.1/thumb/v7e-m+fp/hard\libc.a(libc_a-callocr.o)
 .debug_aranges
                0x00000bf0       0x28 i:/mcu/gnu_tools_for_arm/11.3_rel1/bin/../lib/gcc/arm-none-eabi/11.3.1/thumb/v7e-m+fp/hard\libc.a(libc_a-envlock.o)
 .debug_aranges
                0x00000c18       0x20 i:/mcu/gnu_tools_for_arm/11.3_rel1/bin/../lib/gcc/arm-none-eabi/11.3.1/thumb/v7e-m+fp/hard\libc.a(libc_a-reallocr.o)
 .debug_aranges
                0x00000c38       0x30 i:/mcu/gnu_tools_for_arm/11.3_rel1/bin/../lib/gcc/arm-none-eabi/11.3.1/thumb/v7e-m+fp/hard\libc.a(libc_a-wcsnrtombs.o)
 .debug_aranges
                0x00000c68       0x28 i:/mcu/gnu_tools_for_arm/11.3_rel1/bin/../lib/gcc/arm-none-eabi/11.3.1/thumb/v7e-m+fp/hard\libc.a(libc_a-fiprintf.o)
 .debug_aranges
                0x00000c90       0x40 i:/mcu/gnu_tools_for_arm/11.3_rel1/bin/../lib/gcc/arm-none-eabi/11.3.1/thumb/v7e-m+fp/hard\libc.a(libc_a-vfiprintf.o)
 .debug_aranges
                0x00000cd0       0x20 i:/mcu/gnu_tools_for_arm/11.3_rel1/bin/../lib/gcc/arm-none-eabi/11.3.1/thumb/v7e-m+fp/hard\libc.a(libc_a-fvwrite.o)
 .debug_aranges
                0x00000cf0       0x20 i:/mcu/gnu_tools_for_arm/11.3_rel1/bin/../lib/gcc/arm-none-eabi/11.3.1/thumb/v7e-m+fp/hard\libc.a(libc_a-wsetup.o)
 .debug_aranges
                0x00000d10       0x30 i:/mcu/gnu_tools_for_arm/11.3_rel1/bin/../lib/gcc/arm-none-eabi/11.3.1/thumb/v7e-m+fp/hard\libc.a(libc_a-fputwc.o)
 .debug_aranges
                0x00000d40       0x20 i:/mcu/gnu_tools_for_arm/11.3_rel1/bin/../lib/gcc/arm-none-eabi/11.3.1/thumb/v7e-m+fp/hard\libc.a(libc_a-abort.o)
 .debug_aranges
                0x00000d60       0x28 i:/mcu/gnu_tools_for_arm/11.3_rel1/bin/../lib/gcc/arm-none-eabi/11.3.1/thumb/v7e-m+fp/hard\libc.a(libc_a-makebuf.o)
 .debug_aranges
                0x00000d88       0x28 i:/mcu/gnu_tools_for_arm/11.3_rel1/bin/../lib/gcc/arm-none-eabi/11.3.1/thumb/v7e-m+fp/hard\libc.a(libc_a-wbuf.o)
 .debug_aranges
                0x00000db0       0x58 i:/mcu/gnu_tools_for_arm/11.3_rel1/bin/../lib/gcc/arm-none-eabi/11.3.1/thumb/v7e-m+fp/hard\libc.a(libc_a-signal.o)
 .debug_aranges
                0x00000e08       0x20 i:/mcu/gnu_tools_for_arm/11.3_rel1/bin/../lib/gcc/arm-none-eabi/11.3.1/thumb/v7e-m+fp/hard\libc.a(libc_a-fstatr.o)
 .debug_aranges
                0x00000e28       0x20 i:/mcu/gnu_tools_for_arm/11.3_rel1/bin/../lib/gcc/arm-none-eabi/11.3.1/thumb/v7e-m+fp/hard\libc.a(libc_a-isattyr.o)
 .debug_aranges
                0x00000e48       0x28 i:/mcu/gnu_tools_for_arm/11.3_rel1/bin/../lib/gcc/arm-none-eabi/11.3.1/thumb/v7e-m+fp/hard\libc.a(libc_a-signalr.o)
 .debug_aranges
                0x00000e70       0x20 i:/mcu/gnu_tools_for_arm/11.3_rel1/bin/../lib/gcc/arm-none-eabi/11.3.1/thumb/v7e-m+fp/hard\libnosys.a(sbrk.o)
 .debug_aranges
                0x00000e90       0x20 i:/mcu/gnu_tools_for_arm/11.3_rel1/bin/../lib/gcc/arm-none-eabi/11.3.1/thumb/v7e-m+fp/hard\libgcc.a(_arm_muldf3.o)
 .debug_aranges
                0x00000eb0       0x20 i:/mcu/gnu_tools_for_arm/11.3_rel1/bin/../lib/gcc/arm-none-eabi/11.3.1/thumb/v7e-m+fp/hard\libgcc.a(_arm_addsubdf3.o)
 .debug_aranges
                0x00000ed0       0x20 i:/mcu/gnu_tools_for_arm/11.3_rel1/bin/../lib/gcc/arm-none-eabi/11.3.1/thumb/v7e-m+fp/hard\libgcc.a(_arm_muldivdf3.o)
 .debug_aranges
                0x00000ef0       0x20 i:/mcu/gnu_tools_for_arm/11.3_rel1/bin/../lib/gcc/arm-none-eabi/11.3.1/thumb/v7e-m+fp/hard\libgcc.a(_arm_cmpdf2.o)
 .debug_aranges
                0x00000f10       0x20 i:/mcu/gnu_tools_for_arm/11.3_rel1/bin/../lib/gcc/arm-none-eabi/11.3.1/thumb/v7e-m+fp/hard\libgcc.a(_arm_unorddf2.o)
 .debug_aranges
                0x00000f30       0x20 i:/mcu/gnu_tools_for_arm/11.3_rel1/bin/../lib/gcc/arm-none-eabi/11.3.1/thumb/v7e-m+fp/hard\libgcc.a(_arm_fixdfsi.o)

.debug_str      0x00000000     0x6f0a
 .debug_str     0x00000000       0xef i:/mcu/gnu_tools_for_arm/11.3_rel1/bin/../lib/gcc/arm-none-eabi/11.3.1/thumb/v7e-m+fp/hard/crt0.o
 .debug_str     0x000000ef      0x295 build/main.o
                                0x303 (size before relaxing)
 .debug_str     0x00000384       0x5f build/cpu.o
                                0x18a (size before relaxing)
 .debug_str     0x000003e3      0x741 build/cs.o
                                0x93d (size before relaxing)
 .debug_str     0x00000b24      0x974 build/flash.o
                                0xc05 (size before relaxing)
 .debug_str     0x00001498      0x144 build/fpu.o
                                0x290 (size before relaxing)
 .debug_str     0x000015dc      0x324 build/gpio.o
                                0x5c1 (size before relaxing)
 .debug_str     0x00001900      0x266 build/interrupt.o
                                0x4ec (size before relaxing)
 .debug_str     0x00001b66      0x135 build/mpu.o
                                0x2ef (size before relaxing)
 .debug_str     0x00001c9b      0x3d4 build/pcm.o
                                0x676 (size before relaxing)
 .debug_str     0x0000206f      0x217 build/pss.o
                                0x401 (size before relaxing)
 .debug_str     0x00002286      0x1f4 build/ref_a.o
                                0x35d (size before relaxing)
 .debug_str     0x0000247a      0x25c build/reset.o
                                0x396 (size before relaxing)
 .debug_str     0x000026d6      0x3ac build/rtc_c.o
                                0x5d1 (size before relaxing)
 .debug_str     0x00002a82      0x261 build/sysctl.o
                                0x475 (size before relaxing)
 .debug_str     0x00002ce3       0xe0 build/systick.o
                                0x26d (size before relaxing)
 .debug_str     0x00002dc3      0x322 build/uart.o
                                0x573 (size before relaxing)
 .debug_str     0x000030e5       0xf3 build/wdt_a.o
                                0x340 (size before relaxing)
 .debug_str     0x000031d8       0xbb build/startup_msp432p401r_gcc.o
                                0x1e6 (size before relaxing)
 .debug_str     0x00003293      0x3a3 build/system_msp432p401r.o
                                0xa3f (size before relaxing)
 .debug_str     0x00003636       0x59 build/user_periph.o
                                0x138 (size before relaxing)
 .debug_str     0x0000368f      0x208 build/syscalls.o
                                0x3a1 (size before relaxing)
 .debug_str     0x00003897      0x179 build/user_uart.o
                                0x406 (size before relaxing)
 .debug_str     0x00003a10       0xfa build/user_dma.o
                                0x376 (size before relaxing)
 .debug_str     0x00003b0a      0x129 build/iic_bus.o
                                0x3af (size before relaxing)
 .debug_str     0x00003c33      0x18d i:/mcu/gnu_tools_for_arm/11.3_rel1/bin/../lib/gcc/arm-none-eabi/11.3.1/thumb/v7e-m+fp/hard\libc.a(libc_a-exit.o)
                                0x22d (size before relaxing)
 .debug_str     0x00003dc0      0x539 i:/mcu/gnu_tools_for_arm/11.3_rel1/bin/../lib/gcc/arm-none-eabi/11.3.1/thumb/v7e-m+fp/hard\libc.a(libc_a-findfp.o)
                                0x79f (size before relaxing)
 .debug_str     0x000042f9       0x59 i:/mcu/gnu_tools_for_arm/11.3_rel1/bin/../lib/gcc/arm-none-eabi/11.3.1/thumb/v7e-m+fp/hard\libc.a(libc_a-fwalk.o)
                                0x527 (size before relaxing)
 .debug_str     0x00004352       0x7f i:/mcu/gnu_tools_for_arm/11.3_rel1/bin/../lib/gcc/arm-none-eabi/11.3.1/thumb/v7e-m+fp/hard\libc.a(libc_a-sprintf.o)
                                0x556 (size before relaxing)
 .debug_str     0x000043d1       0x97 i:/mcu/gnu_tools_for_arm/11.3_rel1/bin/../lib/gcc/arm-none-eabi/11.3.1/thumb/v7e-m+fp/hard\libc.a(libc_a-stdio.o)
                                0x584 (size before relaxing)
 .debug_str     0x00004468       0x6f i:/mcu/gnu_tools_for_arm/11.3_rel1/bin/../lib/gcc/arm-none-eabi/11.3.1/thumb/v7e-m+fp/hard\libc.a(libc_a-memset.o)
                                0x21b (size before relaxing)
 .debug_str     0x000044d7       0x5a i:/mcu/gnu_tools_for_arm/11.3_rel1/bin/../lib/gcc/arm-none-eabi/11.3.1/thumb/v7e-m+fp/hard\libc.a(libc_a-closer.o)
                                0x50d (size before relaxing)
 .debug_str     0x00004531       0x80 i:/mcu/gnu_tools_for_arm/11.3_rel1/bin/../lib/gcc/arm-none-eabi/11.3.1/thumb/v7e-m+fp/hard\libc.a(libc_a-reent.o)
                                0x536 (size before relaxing)
 .debug_str     0x000045b1       0x5a i:/mcu/gnu_tools_for_arm/11.3_rel1/bin/../lib/gcc/arm-none-eabi/11.3.1/thumb/v7e-m+fp/hard\libc.a(libc_a-impure.o)
                                0x51c (size before relaxing)
 .debug_str     0x0000460b       0x5a i:/mcu/gnu_tools_for_arm/11.3_rel1/bin/../lib/gcc/arm-none-eabi/11.3.1/thumb/v7e-m+fp/hard\libc.a(libc_a-lseekr.o)
                                0x51b (size before relaxing)
 .debug_str     0x00004665       0x59 i:/mcu/gnu_tools_for_arm/11.3_rel1/bin/../lib/gcc/arm-none-eabi/11.3.1/thumb/v7e-m+fp/hard\libc.a(libc_a-readr.o)
                                0x51b (size before relaxing)
 .debug_str     0x000046be       0x5a i:/mcu/gnu_tools_for_arm/11.3_rel1/bin/../lib/gcc/arm-none-eabi/11.3.1/thumb/v7e-m+fp/hard\libc.a(libc_a-writer.o)
                                0x51d (size before relaxing)
 .debug_str     0x00004718       0x59 i:/mcu/gnu_tools_for_arm/11.3_rel1/bin/../lib/gcc/arm-none-eabi/11.3.1/thumb/v7e-m+fp/hard\libc.a(libc_a-errno.o)
                                0x511 (size before relaxing)
 .debug_str     0x00004771       0xb7 i:/mcu/gnu_tools_for_arm/11.3_rel1/bin/../lib/gcc/arm-none-eabi/11.3.1/thumb/v7e-m+fp/hard\libc.a(libc_a-init.o)
                                0x268 (size before relaxing)
 .debug_str     0x00004828      0x1d8 i:/mcu/gnu_tools_for_arm/11.3_rel1/bin/../lib/gcc/arm-none-eabi/11.3.1/thumb/v7e-m+fp/hard\libc.a(libc_a-lock.o)
                                0x37a (size before relaxing)
 .debug_str     0x00004a00       0xe2 i:/mcu/gnu_tools_for_arm/11.3_rel1/bin/../lib/gcc/arm-none-eabi/11.3.1/thumb/v7e-m+fp/hard\libc.a(libc_a-__call_atexit.o)
                                0x344 (size before relaxing)
 .debug_str     0x00004ae2       0x9f i:/mcu/gnu_tools_for_arm/11.3_rel1/bin/../lib/gcc/arm-none-eabi/11.3.1/thumb/v7e-m+fp/hard\libc.a(libc_a-atexit.o)
                                0x244 (size before relaxing)
 .debug_str     0x00004b81      0x1a1 i:/mcu/gnu_tools_for_arm/11.3_rel1/bin/../lib/gcc/arm-none-eabi/11.3.1/thumb/v7e-m+fp/hard\libc.a(libc_a-freer.o)
                                0x67f (size before relaxing)
 .debug_str     0x00004d22      0x141 i:/mcu/gnu_tools_for_arm/11.3_rel1/bin/../lib/gcc/arm-none-eabi/11.3.1/thumb/v7e-m+fp/hard\libc.a(libc_a-mallocr.o)
                                0x737 (size before relaxing)
 .debug_str     0x00004e63       0x5a i:/mcu/gnu_tools_for_arm/11.3_rel1/bin/../lib/gcc/arm-none-eabi/11.3.1/thumb/v7e-m+fp/hard\libc.a(libc_a-mlock.o)
                                0x599 (size before relaxing)
 .debug_str     0x00004ebd      0x40a i:/mcu/gnu_tools_for_arm/11.3_rel1/bin/../lib/gcc/arm-none-eabi/11.3.1/thumb/v7e-m+fp/hard\libc.a(libc_a-svfprintf.o)
                                0xa17 (size before relaxing)
 .debug_str     0x000052c7       0x81 i:/mcu/gnu_tools_for_arm/11.3_rel1/bin/../lib/gcc/arm-none-eabi/11.3.1/thumb/v7e-m+fp/hard\libc.a(libc_a-fclose.o)
                                0x5da (size before relaxing)
 .debug_str     0x00005348       0x7c i:/mcu/gnu_tools_for_arm/11.3_rel1/bin/../lib/gcc/arm-none-eabi/11.3.1/thumb/v7e-m+fp/hard\libc.a(libc_a-fflush.o)
                                0x5e2 (size before relaxing)
 .debug_str     0x000053c4       0x7e i:/mcu/gnu_tools_for_arm/11.3_rel1/bin/../lib/gcc/arm-none-eabi/11.3.1/thumb/v7e-m+fp/hard\libc.a(libc_a-strncpy.o)
                                0x231 (size before relaxing)
 .debug_str     0x00005442      0x266 i:/mcu/gnu_tools_for_arm/11.3_rel1/bin/../lib/gcc/arm-none-eabi/11.3.1/thumb/v7e-m+fp/hard\libc.a(libc_a-locale.o)
                                0x957 (size before relaxing)
 .debug_str     0x000056a8       0x88 i:/mcu/gnu_tools_for_arm/11.3_rel1/bin/../lib/gcc/arm-none-eabi/11.3.1/thumb/v7e-m+fp/hard\libc.a(libc_a-localeconv.o)
                                0x768 (size before relaxing)
 .debug_str     0x00005730       0x64 i:/mcu/gnu_tools_for_arm/11.3_rel1/bin/../lib/gcc/arm-none-eabi/11.3.1/thumb/v7e-m+fp/hard\libc.a(libc_a-sbrkr.o)
                                0x520 (size before relaxing)
 .debug_str     0x00005794       0x7b i:/mcu/gnu_tools_for_arm/11.3_rel1/bin/../lib/gcc/arm-none-eabi/11.3.1/thumb/v7e-m+fp/hard\libc.a(libc_a-fini.o)
                                0x23e (size before relaxing)
 .debug_str     0x0000580f       0x66 i:/mcu/gnu_tools_for_arm/11.3_rel1/bin/../lib/gcc/arm-none-eabi/11.3.1/thumb/v7e-m+fp/hard\libc.a(libc_a-strcmp.o)
                                 0xee (size before relaxing)
 .debug_str     0x00005875       0x60 i:/mcu/gnu_tools_for_arm/11.3_rel1/bin/../lib/gcc/arm-none-eabi/11.3.1/thumb/v7e-m+fp/hard\libc.a(libc_a-strcpy.o)
                                0x205 (size before relaxing)
 .debug_str     0x000058d5       0x60 i:/mcu/gnu_tools_for_arm/11.3_rel1/bin/../lib/gcc/arm-none-eabi/11.3.1/thumb/v7e-m+fp/hard\libc.a(libc_a-memchr.o)
                                 0xe8 (size before relaxing)
 .debug_str     0x00005935       0x66 i:/mcu/gnu_tools_for_arm/11.3_rel1/bin/../lib/gcc/arm-none-eabi/11.3.1/thumb/v7e-m+fp/hard\libc.a(libc_a-strlen.o)
                                 0xee (size before relaxing)
 .debug_str     0x0000599b       0x91 i:/mcu/gnu_tools_for_arm/11.3_rel1/bin/../lib/gcc/arm-none-eabi/11.3.1/thumb/v7e-m+fp/hard\libc.a(libm_a-s_frexp.o)
                                0x26a (size before relaxing)
 .debug_str     0x00005a2c       0x67 i:/mcu/gnu_tools_for_arm/11.3_rel1/bin/../lib/gcc/arm-none-eabi/11.3.1/thumb/v7e-m+fp/hard\libc.a(libc_a-__atexit.o)
                                0x31b (size before relaxing)
 .debug_str     0x00005a93      0x1b9 i:/mcu/gnu_tools_for_arm/11.3_rel1/bin/../lib/gcc/arm-none-eabi/11.3.1/thumb/v7e-m+fp/hard\libc.a(libc_a-dtoa.o)
                                0x8ef (size before relaxing)
 .debug_str     0x00005c4c       0x92 i:/mcu/gnu_tools_for_arm/11.3_rel1/bin/../lib/gcc/arm-none-eabi/11.3.1/thumb/v7e-m+fp/hard\libc.a(libc_a-getenv_r.o)
                                0x565 (size before relaxing)
 .debug_str     0x00005cde      0x150 i:/mcu/gnu_tools_for_arm/11.3_rel1/bin/../lib/gcc/arm-none-eabi/11.3.1/thumb/v7e-m+fp/hard\libc.a(libc_a-mbtowc_r.o)
                                0x865 (size before relaxing)
 .debug_str     0x00005e2e       0xc5 i:/mcu/gnu_tools_for_arm/11.3_rel1/bin/../lib/gcc/arm-none-eabi/11.3.1/thumb/v7e-m+fp/hard\libc.a(libc_a-mprec.o)
                                0x82d (size before relaxing)
 .debug_str     0x00005ef3       0x99 i:/mcu/gnu_tools_for_arm/11.3_rel1/bin/../lib/gcc/arm-none-eabi/11.3.1/thumb/v7e-m+fp/hard\libc.a(libc_a-strtol.o)
                                0x798 (size before relaxing)
 .debug_str     0x00005f8c       0x7a i:/mcu/gnu_tools_for_arm/11.3_rel1/bin/../lib/gcc/arm-none-eabi/11.3.1/thumb/v7e-m+fp/hard\libc.a(libc_a-wctomb_r.o)
                                0x788 (size before relaxing)
 .debug_str     0x00006006       0x6b i:/mcu/gnu_tools_for_arm/11.3_rel1/bin/../lib/gcc/arm-none-eabi/11.3.1/thumb/v7e-m+fp/hard\libc.a(libc_a-wcrtomb.o)
                                0x743 (size before relaxing)
 .debug_str     0x00006071       0x76 i:/mcu/gnu_tools_for_arm/11.3_rel1/bin/../lib/gcc/arm-none-eabi/11.3.1/thumb/v7e-m+fp/hard\libc.a(libc_a-wcsrtombs.o)
                                0x54c (size before relaxing)
 .debug_str     0x000060e7       0x5a i:/mcu/gnu_tools_for_arm/11.3_rel1/bin/../lib/gcc/arm-none-eabi/11.3.1/thumb/v7e-m+fp/hard\libc.a(libc_a-ctype_.o)
                                0x6f8 (size before relaxing)
 .debug_str     0x00006141       0x8e i:/mcu/gnu_tools_for_arm/11.3_rel1/bin/../lib/gcc/arm-none-eabi/11.3.1/thumb/v7e-m+fp/hard\libc.a(libc_a-svfiprintf.o)
                                0x911 (size before relaxing)
 .debug_str     0x000061cf       0x6e i:/mcu/gnu_tools_for_arm/11.3_rel1/bin/../lib/gcc/arm-none-eabi/11.3.1/thumb/v7e-m+fp/hard\libc.a(libc_a-memmove.o)
                                0x23a (size before relaxing)
 .debug_str     0x0000623d       0x5f i:/mcu/gnu_tools_for_arm/11.3_rel1/bin/../lib/gcc/arm-none-eabi/11.3.1/thumb/v7e-m+fp/hard\libc.a(libc_a-strcasecmp.o)
                                0x210 (size before relaxing)
 .debug_str     0x0000629c       0x66 i:/mcu/gnu_tools_for_arm/11.3_rel1/bin/../lib/gcc/arm-none-eabi/11.3.1/thumb/v7e-m+fp/hard\libc.a(libc_a-strcat.o)
                                0x212 (size before relaxing)
 .debug_str     0x00006302       0x5b i:/mcu/gnu_tools_for_arm/11.3_rel1/bin/../lib/gcc/arm-none-eabi/11.3.1/thumb/v7e-m+fp/hard\libc.a(libc_a-strchr.o)
                                0x212 (size before relaxing)
 .debug_str     0x0000635d       0x67 i:/mcu/gnu_tools_for_arm/11.3_rel1/bin/../lib/gcc/arm-none-eabi/11.3.1/thumb/v7e-m+fp/hard\libc.a(libc_a-strlcpy.o)
                                0x21a (size before relaxing)
 .debug_str     0x000063c4       0x60 i:/mcu/gnu_tools_for_arm/11.3_rel1/bin/../lib/gcc/arm-none-eabi/11.3.1/thumb/v7e-m+fp/hard\libc.a(libc_a-strncasecmp.o)
                                0x219 (size before relaxing)
 .debug_str     0x00006424       0x5c i:/mcu/gnu_tools_for_arm/11.3_rel1/bin/../lib/gcc/arm-none-eabi/11.3.1/thumb/v7e-m+fp/hard\libc.a(libc_a-strncmp.o)
                                0x209 (size before relaxing)
 .debug_str     0x00006480       0x67 i:/mcu/gnu_tools_for_arm/11.3_rel1/bin/../lib/gcc/arm-none-eabi/11.3.1/thumb/v7e-m+fp/hard\libc.a(libc_a-memcpy.o)
                                 0xef (size before relaxing)
 .debug_str     0x000064e7       0x7a i:/mcu/gnu_tools_for_arm/11.3_rel1/bin/../lib/gcc/arm-none-eabi/11.3.1/thumb/v7e-m+fp/hard\libc.a(libc_a-assert.o)
                                0x550 (size before relaxing)
 .debug_str     0x00006561       0x6b i:/mcu/gnu_tools_for_arm/11.3_rel1/bin/../lib/gcc/arm-none-eabi/11.3.1/thumb/v7e-m+fp/hard\libc.a(libc_a-callocr.o)
                                0x569 (size before relaxing)
 .debug_str     0x000065cc       0x5c i:/mcu/gnu_tools_for_arm/11.3_rel1/bin/../lib/gcc/arm-none-eabi/11.3.1/thumb/v7e-m+fp/hard\libc.a(libc_a-envlock.o)
                                0x58f (size before relaxing)
 .debug_str     0x00006628       0xab i:/mcu/gnu_tools_for_arm/11.3_rel1/bin/../lib/gcc/arm-none-eabi/11.3.1/thumb/v7e-m+fp/hard\libc.a(libc_a-reallocr.o)
                                0x60a (size before relaxing)
 .debug_str     0x000066d3       0x82 i:/mcu/gnu_tools_for_arm/11.3_rel1/bin/../lib/gcc/arm-none-eabi/11.3.1/thumb/v7e-m+fp/hard\libc.a(libc_a-wcsnrtombs.o)
                                0x763 (size before relaxing)
 .debug_str     0x00006755       0x75 i:/mcu/gnu_tools_for_arm/11.3_rel1/bin/../lib/gcc/arm-none-eabi/11.3.1/thumb/v7e-m+fp/hard\libc.a(libc_a-fiprintf.o)
                                0x559 (size before relaxing)
 .debug_str     0x000067ca       0xa5 i:/mcu/gnu_tools_for_arm/11.3_rel1/bin/../lib/gcc/arm-none-eabi/11.3.1/thumb/v7e-m+fp/hard\libc.a(libc_a-vfiprintf.o)
                                0x9df (size before relaxing)
 .debug_str     0x0000686f       0x6a i:/mcu/gnu_tools_for_arm/11.3_rel1/bin/../lib/gcc/arm-none-eabi/11.3.1/thumb/v7e-m+fp/hard\libc.a(libc_a-fvwrite.o)
                                0x5bb (size before relaxing)
 .debug_str     0x000068d9       0x67 i:/mcu/gnu_tools_for_arm/11.3_rel1/bin/../lib/gcc/arm-none-eabi/11.3.1/thumb/v7e-m+fp/hard\libc.a(libc_a-wsetup.o)
                                0x548 (size before relaxing)
 .debug_str     0x00006940       0x77 i:/mcu/gnu_tools_for_arm/11.3_rel1/bin/../lib/gcc/arm-none-eabi/11.3.1/thumb/v7e-m+fp/hard\libc.a(libc_a-fputwc.o)
                                0x5dc (size before relaxing)
 .debug_str     0x000069b7       0x60 i:/mcu/gnu_tools_for_arm/11.3_rel1/bin/../lib/gcc/arm-none-eabi/11.3.1/thumb/v7e-m+fp/hard\libc.a(libc_a-abort.o)
                                0x20a (size before relaxing)
 .debug_str     0x00006a17       0x93 i:/mcu/gnu_tools_for_arm/11.3_rel1/bin/../lib/gcc/arm-none-eabi/11.3.1/thumb/v7e-m+fp/hard\libc.a(libc_a-makebuf.o)
                                0x6aa (size before relaxing)
 .debug_str     0x00006aaa       0x60 i:/mcu/gnu_tools_for_arm/11.3_rel1/bin/../lib/gcc/arm-none-eabi/11.3.1/thumb/v7e-m+fp/hard\libc.a(libc_a-wbuf.o)
                                0x54d (size before relaxing)
 .debug_str     0x00006b0a       0xc1 i:/mcu/gnu_tools_for_arm/11.3_rel1/bin/../lib/gcc/arm-none-eabi/11.3.1/thumb/v7e-m+fp/hard\libc.a(libc_a-signal.o)
                                0x59e (size before relaxing)
 .debug_str     0x00006bcb       0x60 i:/mcu/gnu_tools_for_arm/11.3_rel1/bin/../lib/gcc/arm-none-eabi/11.3.1/thumb/v7e-m+fp/hard\libc.a(libc_a-fstatr.o)
                                0x65f (size before relaxing)
 .debug_str     0x00006c2b       0x5b i:/mcu/gnu_tools_for_arm/11.3_rel1/bin/../lib/gcc/arm-none-eabi/11.3.1/thumb/v7e-m+fp/hard\libc.a(libc_a-isattyr.o)
                                0x517 (size before relaxing)
 .debug_str     0x00006c86       0x63 i:/mcu/gnu_tools_for_arm/11.3_rel1/bin/../lib/gcc/arm-none-eabi/11.3.1/thumb/v7e-m+fp/hard\libc.a(libc_a-signalr.o)
                                0x533 (size before relaxing)
 .debug_str     0x00006ce9      0x153 i:/mcu/gnu_tools_for_arm/11.3_rel1/bin/../lib/gcc/arm-none-eabi/11.3.1/thumb/v7e-m+fp/hard\libnosys.a(sbrk.o)
                                0x16c (size before relaxing)
 .debug_str     0x00006e3c       0xce i:/mcu/gnu_tools_for_arm/11.3_rel1/bin/../lib/gcc/arm-none-eabi/11.3.1/thumb/v7e-m+fp/hard\libgcc.a(_arm_muldf3.o)
                                 0xda (size before relaxing)
 .debug_str     0x00006f0a       0xda i:/mcu/gnu_tools_for_arm/11.3_rel1/bin/../lib/gcc/arm-none-eabi/11.3.1/thumb/v7e-m+fp/hard\libgcc.a(_arm_addsubdf3.o)
 .debug_str     0x00006f0a       0xda i:/mcu/gnu_tools_for_arm/11.3_rel1/bin/../lib/gcc/arm-none-eabi/11.3.1/thumb/v7e-m+fp/hard\libgcc.a(_arm_muldivdf3.o)
 .debug_str     0x00006f0a       0xda i:/mcu/gnu_tools_for_arm/11.3_rel1/bin/../lib/gcc/arm-none-eabi/11.3.1/thumb/v7e-m+fp/hard\libgcc.a(_arm_cmpdf2.o)
 .debug_str     0x00006f0a       0xda i:/mcu/gnu_tools_for_arm/11.3_rel1/bin/../lib/gcc/arm-none-eabi/11.3.1/thumb/v7e-m+fp/hard\libgcc.a(_arm_unorddf2.o)
 .debug_str     0x00006f0a       0xda i:/mcu/gnu_tools_for_arm/11.3_rel1/bin/../lib/gcc/arm-none-eabi/11.3.1/thumb/v7e-m+fp/hard\libgcc.a(_arm_fixdfsi.o)

.debug_frame    0x00000000     0x4dbc
 .debug_frame   0x00000000       0x94 build/main.o
 .debug_frame   0x00000094       0x70 build/cpu.o
 .debug_frame   0x00000104      0x53c build/cs.o
 .debug_frame   0x00000640      0x584 build/flash.o
 .debug_frame   0x00000bc4      0x150 build/fpu.o
 .debug_frame   0x00000d14      0x324 build/gpio.o
 .debug_frame   0x00001038      0x2e0 build/interrupt.o
 .debug_frame   0x00001318      0x190 build/mpu.o
 .debug_frame   0x000014a8      0x44c build/pcm.o
 .debug_frame   0x000018f4      0x274 build/pss.o
 .debug_frame   0x00001b68      0x1f8 build/ref_a.o
 .debug_frame   0x00001d60      0x1b0 build/reset.o
 .debug_frame   0x00001f10      0x338 build/rtc_c.o
 .debug_frame   0x00002248      0x2b0 build/sysctl.o
 .debug_frame   0x000024f8      0x138 build/systick.o
 .debug_frame   0x00002630      0x324 build/uart.o
 .debug_frame   0x00002954      0x160 build/wdt_a.o
 .debug_frame   0x00002ab4       0x4c build/startup_msp432p401r_gcc.o
 .debug_frame   0x00002b00       0x58 build/system_msp432p401r.o
 .debug_frame   0x00002b58       0x58 build/user_periph.o
 .debug_frame   0x00002bb0      0x2ac build/syscalls.o
 .debug_frame   0x00002e5c      0x16c build/user_uart.o
 .debug_frame   0x00002fc8       0xf8 build/user_dma.o
 .debug_frame   0x000030c0      0x164 build/iic_bus.o
 .debug_frame   0x00003224       0x28 i:/mcu/gnu_tools_for_arm/11.3_rel1/bin/../lib/gcc/arm-none-eabi/11.3.1/thumb/v7e-m+fp/hard\libc.a(libc_a-exit.o)
 .debug_frame   0x0000324c      0x130 i:/mcu/gnu_tools_for_arm/11.3_rel1/bin/../lib/gcc/arm-none-eabi/11.3.1/thumb/v7e-m+fp/hard\libc.a(libc_a-findfp.o)
 .debug_frame   0x0000337c       0x34 i:/mcu/gnu_tools_for_arm/11.3_rel1/bin/../lib/gcc/arm-none-eabi/11.3.1/thumb/v7e-m+fp/hard\libc.a(libc_a-fwalk.o)
 .debug_frame   0x000033b0       0x74 i:/mcu/gnu_tools_for_arm/11.3_rel1/bin/../lib/gcc/arm-none-eabi/11.3.1/thumb/v7e-m+fp/hard\libc.a(libc_a-sprintf.o)
 .debug_frame   0x00003424       0x8c i:/mcu/gnu_tools_for_arm/11.3_rel1/bin/../lib/gcc/arm-none-eabi/11.3.1/thumb/v7e-m+fp/hard\libc.a(libc_a-stdio.o)
 .debug_frame   0x000034b0       0x2c i:/mcu/gnu_tools_for_arm/11.3_rel1/bin/../lib/gcc/arm-none-eabi/11.3.1/thumb/v7e-m+fp/hard\libc.a(libc_a-memset.o)
 .debug_frame   0x000034dc       0x2c i:/mcu/gnu_tools_for_arm/11.3_rel1/bin/../lib/gcc/arm-none-eabi/11.3.1/thumb/v7e-m+fp/hard\libc.a(libc_a-closer.o)
 .debug_frame   0x00003508       0x3c i:/mcu/gnu_tools_for_arm/11.3_rel1/bin/../lib/gcc/arm-none-eabi/11.3.1/thumb/v7e-m+fp/hard\libc.a(libc_a-reent.o)
 .debug_frame   0x00003544       0x2c i:/mcu/gnu_tools_for_arm/11.3_rel1/bin/../lib/gcc/arm-none-eabi/11.3.1/thumb/v7e-m+fp/hard\libc.a(libc_a-lseekr.o)
 .debug_frame   0x00003570       0x2c i:/mcu/gnu_tools_for_arm/11.3_rel1/bin/../lib/gcc/arm-none-eabi/11.3.1/thumb/v7e-m+fp/hard\libc.a(libc_a-readr.o)
 .debug_frame   0x0000359c       0x2c i:/mcu/gnu_tools_for_arm/11.3_rel1/bin/../lib/gcc/arm-none-eabi/11.3.1/thumb/v7e-m+fp/hard\libc.a(libc_a-writer.o)
 .debug_frame   0x000035c8       0x20 i:/mcu/gnu_tools_for_arm/11.3_rel1/bin/../lib/gcc/arm-none-eabi/11.3.1/thumb/v7e-m+fp/hard\libc.a(libc_a-errno.o)
 .debug_frame   0x000035e8       0x2c i:/mcu/gnu_tools_for_arm/11.3_rel1/bin/../lib/gcc/arm-none-eabi/11.3.1/thumb/v7e-m+fp/hard\libc.a(libc_a-init.o)
 .debug_frame   0x00003614       0xb0 i:/mcu/gnu_tools_for_arm/11.3_rel1/bin/../lib/gcc/arm-none-eabi/11.3.1/thumb/v7e-m+fp/hard\libc.a(libc_a-lock.o)
 .debug_frame   0x000036c4       0x68 i:/mcu/gnu_tools_for_arm/11.3_rel1/bin/../lib/gcc/arm-none-eabi/11.3.1/thumb/v7e-m+fp/hard\libc.a(libc_a-__call_atexit.o)
 .debug_frame   0x0000372c       0x20 i:/mcu/gnu_tools_for_arm/11.3_rel1/bin/../lib/gcc/arm-none-eabi/11.3.1/thumb/v7e-m+fp/hard\libc.a(libc_a-atexit.o)
 .debug_frame   0x0000374c       0x8c i:/mcu/gnu_tools_for_arm/11.3_rel1/bin/../lib/gcc/arm-none-eabi/11.3.1/thumb/v7e-m+fp/hard\libc.a(libc_a-freer.o)
 .debug_frame   0x000037d8       0x4c i:/mcu/gnu_tools_for_arm/11.3_rel1/bin/../lib/gcc/arm-none-eabi/11.3.1/thumb/v7e-m+fp/hard\libc.a(libc_a-mallocr.o)
 .debug_frame   0x00003824       0x30 i:/mcu/gnu_tools_for_arm/11.3_rel1/bin/../lib/gcc/arm-none-eabi/11.3.1/thumb/v7e-m+fp/hard\libc.a(libc_a-mlock.o)
 .debug_frame   0x00003854       0x68 i:/mcu/gnu_tools_for_arm/11.3_rel1/bin/../lib/gcc/arm-none-eabi/11.3.1/thumb/v7e-m+fp/hard\libc.a(libc_a-svfprintf.o)
 .debug_frame   0x000038bc       0x3c i:/mcu/gnu_tools_for_arm/11.3_rel1/bin/../lib/gcc/arm-none-eabi/11.3.1/thumb/v7e-m+fp/hard\libc.a(libc_a-fclose.o)
 .debug_frame   0x000038f8       0x70 i:/mcu/gnu_tools_for_arm/11.3_rel1/bin/../lib/gcc/arm-none-eabi/11.3.1/thumb/v7e-m+fp/hard\libc.a(libc_a-fflush.o)
 .debug_frame   0x00003968       0x2c i:/mcu/gnu_tools_for_arm/11.3_rel1/bin/../lib/gcc/arm-none-eabi/11.3.1/thumb/v7e-m+fp/hard\libc.a(libc_a-strncpy.o)
 .debug_frame   0x00003994      0x130 i:/mcu/gnu_tools_for_arm/11.3_rel1/bin/../lib/gcc/arm-none-eabi/11.3.1/thumb/v7e-m+fp/hard\libc.a(libc_a-locale.o)
 .debug_frame   0x00003ac4       0x40 i:/mcu/gnu_tools_for_arm/11.3_rel1/bin/../lib/gcc/arm-none-eabi/11.3.1/thumb/v7e-m+fp/hard\libc.a(libc_a-localeconv.o)
 .debug_frame   0x00003b04       0x2c i:/mcu/gnu_tools_for_arm/11.3_rel1/bin/../lib/gcc/arm-none-eabi/11.3.1/thumb/v7e-m+fp/hard\libc.a(libc_a-sbrkr.o)
 .debug_frame   0x00003b30       0x34 i:/mcu/gnu_tools_for_arm/11.3_rel1/bin/../lib/gcc/arm-none-eabi/11.3.1/thumb/v7e-m+fp/hard\libc.a(libc_a-fini.o)
 .debug_frame   0x00003b64       0x68 i:/mcu/gnu_tools_for_arm/11.3_rel1/bin/../lib/gcc/arm-none-eabi/11.3.1/thumb/v7e-m+fp/hard\libc.a(libc_a-strcmp.o)
 .debug_frame   0x00003bcc       0x20 i:/mcu/gnu_tools_for_arm/11.3_rel1/bin/../lib/gcc/arm-none-eabi/11.3.1/thumb/v7e-m+fp/hard\libc.a(libc_a-strcpy.o)
 .debug_frame   0x00003bec       0x2c i:/mcu/gnu_tools_for_arm/11.3_rel1/bin/../lib/gcc/arm-none-eabi/11.3.1/thumb/v7e-m+fp/hard\libc.a(libm_a-s_frexp.o)
 .debug_frame   0x00003c18       0x34 i:/mcu/gnu_tools_for_arm/11.3_rel1/bin/../lib/gcc/arm-none-eabi/11.3.1/thumb/v7e-m+fp/hard\libc.a(libc_a-__atexit.o)
 .debug_frame   0x00003c4c       0xdc i:/mcu/gnu_tools_for_arm/11.3_rel1/bin/../lib/gcc/arm-none-eabi/11.3.1/thumb/v7e-m+fp/hard\libc.a(libc_a-dtoa.o)
 .debug_frame   0x00003d28       0x50 i:/mcu/gnu_tools_for_arm/11.3_rel1/bin/../lib/gcc/arm-none-eabi/11.3.1/thumb/v7e-m+fp/hard\libc.a(libc_a-getenv_r.o)
 .debug_frame   0x00003d78      0x134 i:/mcu/gnu_tools_for_arm/11.3_rel1/bin/../lib/gcc/arm-none-eabi/11.3.1/thumb/v7e-m+fp/hard\libc.a(libc_a-mbtowc_r.o)
 .debug_frame   0x00003eac      0x278 i:/mcu/gnu_tools_for_arm/11.3_rel1/bin/../lib/gcc/arm-none-eabi/11.3.1/thumb/v7e-m+fp/hard\libc.a(libc_a-mprec.o)
 .debug_frame   0x00004124       0x80 i:/mcu/gnu_tools_for_arm/11.3_rel1/bin/../lib/gcc/arm-none-eabi/11.3.1/thumb/v7e-m+fp/hard\libc.a(libc_a-strtol.o)
 .debug_frame   0x000041a4       0x94 i:/mcu/gnu_tools_for_arm/11.3_rel1/bin/../lib/gcc/arm-none-eabi/11.3.1/thumb/v7e-m+fp/hard\libc.a(libc_a-wctomb_r.o)
 .debug_frame   0x00004238       0x60 i:/mcu/gnu_tools_for_arm/11.3_rel1/bin/../lib/gcc/arm-none-eabi/11.3.1/thumb/v7e-m+fp/hard\libc.a(libc_a-wcrtomb.o)
 .debug_frame   0x00004298       0x50 i:/mcu/gnu_tools_for_arm/11.3_rel1/bin/../lib/gcc/arm-none-eabi/11.3.1/thumb/v7e-m+fp/hard\libc.a(libc_a-wcsrtombs.o)
 .debug_frame   0x000042e8       0x20 i:/mcu/gnu_tools_for_arm/11.3_rel1/bin/../lib/gcc/arm-none-eabi/11.3.1/thumb/v7e-m+fp/hard\libc.a(libc_a-ctype_.o)
 .debug_frame   0x00004308       0x88 i:/mcu/gnu_tools_for_arm/11.3_rel1/bin/../lib/gcc/arm-none-eabi/11.3.1/thumb/v7e-m+fp/hard\libc.a(libc_a-svfiprintf.o)
 .debug_frame   0x00004390       0x40 i:/mcu/gnu_tools_for_arm/11.3_rel1/bin/../lib/gcc/arm-none-eabi/11.3.1/thumb/v7e-m+fp/hard\libc.a(libc_a-memmove.o)
 .debug_frame   0x000043d0       0x3c i:/mcu/gnu_tools_for_arm/11.3_rel1/bin/../lib/gcc/arm-none-eabi/11.3.1/thumb/v7e-m+fp/hard\libc.a(libc_a-strcasecmp.o)
 .debug_frame   0x0000440c       0x28 i:/mcu/gnu_tools_for_arm/11.3_rel1/bin/../lib/gcc/arm-none-eabi/11.3.1/thumb/v7e-m+fp/hard\libc.a(libc_a-strcat.o)
 .debug_frame   0x00004434       0x34 i:/mcu/gnu_tools_for_arm/11.3_rel1/bin/../lib/gcc/arm-none-eabi/11.3.1/thumb/v7e-m+fp/hard\libc.a(libc_a-strchr.o)
 .debug_frame   0x00004468       0x2c i:/mcu/gnu_tools_for_arm/11.3_rel1/bin/../lib/gcc/arm-none-eabi/11.3.1/thumb/v7e-m+fp/hard\libc.a(libc_a-strlcpy.o)
 .debug_frame   0x00004494       0x30 i:/mcu/gnu_tools_for_arm/11.3_rel1/bin/../lib/gcc/arm-none-eabi/11.3.1/thumb/v7e-m+fp/hard\libc.a(libc_a-strncasecmp.o)
 .debug_frame   0x000044c4       0x38 i:/mcu/gnu_tools_for_arm/11.3_rel1/bin/../lib/gcc/arm-none-eabi/11.3.1/thumb/v7e-m+fp/hard\libc.a(libc_a-strncmp.o)
 .debug_frame   0x000044fc       0x40 i:/mcu/gnu_tools_for_arm/11.3_rel1/bin/../lib/gcc/arm-none-eabi/11.3.1/thumb/v7e-m+fp/hard\libc.a(libc_a-assert.o)
 .debug_frame   0x0000453c       0x2c i:/mcu/gnu_tools_for_arm/11.3_rel1/bin/../lib/gcc/arm-none-eabi/11.3.1/thumb/v7e-m+fp/hard\libc.a(libc_a-callocr.o)
 .debug_frame   0x00004568       0x30 i:/mcu/gnu_tools_for_arm/11.3_rel1/bin/../lib/gcc/arm-none-eabi/11.3.1/thumb/v7e-m+fp/hard\libc.a(libc_a-envlock.o)
 .debug_frame   0x00004598       0x48 i:/mcu/gnu_tools_for_arm/11.3_rel1/bin/../lib/gcc/arm-none-eabi/11.3.1/thumb/v7e-m+fp/hard\libc.a(libc_a-reallocr.o)
 .debug_frame   0x000045e0       0x88 i:/mcu/gnu_tools_for_arm/11.3_rel1/bin/../lib/gcc/arm-none-eabi/11.3.1/thumb/v7e-m+fp/hard\libc.a(libc_a-wcsnrtombs.o)
 .debug_frame   0x00004668       0x70 i:/mcu/gnu_tools_for_arm/11.3_rel1/bin/../lib/gcc/arm-none-eabi/11.3.1/thumb/v7e-m+fp/hard\libc.a(libc_a-fiprintf.o)
 .debug_frame   0x000046d8       0xe8 i:/mcu/gnu_tools_for_arm/11.3_rel1/bin/../lib/gcc/arm-none-eabi/11.3.1/thumb/v7e-m+fp/hard\libc.a(libc_a-vfiprintf.o)
 .debug_frame   0x000047c0       0x64 i:/mcu/gnu_tools_for_arm/11.3_rel1/bin/../lib/gcc/arm-none-eabi/11.3.1/thumb/v7e-m+fp/hard\libc.a(libc_a-fvwrite.o)
 .debug_frame   0x00004824       0x2c i:/mcu/gnu_tools_for_arm/11.3_rel1/bin/../lib/gcc/arm-none-eabi/11.3.1/thumb/v7e-m+fp/hard\libc.a(libc_a-wsetup.o)
 .debug_frame   0x00004850       0x8c i:/mcu/gnu_tools_for_arm/11.3_rel1/bin/../lib/gcc/arm-none-eabi/11.3.1/thumb/v7e-m+fp/hard\libc.a(libc_a-fputwc.o)
 .debug_frame   0x000048dc       0x28 i:/mcu/gnu_tools_for_arm/11.3_rel1/bin/../lib/gcc/arm-none-eabi/11.3.1/thumb/v7e-m+fp/hard\libc.a(libc_a-abort.o)
 .debug_frame   0x00004904       0x70 i:/mcu/gnu_tools_for_arm/11.3_rel1/bin/../lib/gcc/arm-none-eabi/11.3.1/thumb/v7e-m+fp/hard\libc.a(libc_a-makebuf.o)
 .debug_frame   0x00004974       0x4c i:/mcu/gnu_tools_for_arm/11.3_rel1/bin/../lib/gcc/arm-none-eabi/11.3.1/thumb/v7e-m+fp/hard\libc.a(libc_a-wbuf.o)
 .debug_frame   0x000049c0      0x114 i:/mcu/gnu_tools_for_arm/11.3_rel1/bin/../lib/gcc/arm-none-eabi/11.3.1/thumb/v7e-m+fp/hard\libc.a(libc_a-signal.o)
 .debug_frame   0x00004ad4       0x2c i:/mcu/gnu_tools_for_arm/11.3_rel1/bin/../lib/gcc/arm-none-eabi/11.3.1/thumb/v7e-m+fp/hard\libc.a(libc_a-fstatr.o)
 .debug_frame   0x00004b00       0x2c i:/mcu/gnu_tools_for_arm/11.3_rel1/bin/../lib/gcc/arm-none-eabi/11.3.1/thumb/v7e-m+fp/hard\libc.a(libc_a-isattyr.o)
 .debug_frame   0x00004b2c       0x3c i:/mcu/gnu_tools_for_arm/11.3_rel1/bin/../lib/gcc/arm-none-eabi/11.3.1/thumb/v7e-m+fp/hard\libc.a(libc_a-signalr.o)
 .debug_frame   0x00004b68       0x20 i:/mcu/gnu_tools_for_arm/11.3_rel1/bin/../lib/gcc/arm-none-eabi/11.3.1/thumb/v7e-m+fp/hard\libnosys.a(sbrk.o)
 .debug_frame   0x00004b88       0x30 i:/mcu/gnu_tools_for_arm/11.3_rel1/bin/../lib/gcc/arm-none-eabi/11.3.1/thumb/v7e-m+fp/hard\libgcc.a(_arm_muldf3.o)
 .debug_frame   0x00004bb8       0xac i:/mcu/gnu_tools_for_arm/11.3_rel1/bin/../lib/gcc/arm-none-eabi/11.3.1/thumb/v7e-m+fp/hard\libgcc.a(_arm_addsubdf3.o)
 .debug_frame   0x00004c64       0x50 i:/mcu/gnu_tools_for_arm/11.3_rel1/bin/../lib/gcc/arm-none-eabi/11.3.1/thumb/v7e-m+fp/hard\libgcc.a(_arm_muldivdf3.o)
 .debug_frame   0x00004cb4       0xc4 i:/mcu/gnu_tools_for_arm/11.3_rel1/bin/../lib/gcc/arm-none-eabi/11.3.1/thumb/v7e-m+fp/hard\libgcc.a(_arm_cmpdf2.o)
 .debug_frame   0x00004d78       0x20 i:/mcu/gnu_tools_for_arm/11.3_rel1/bin/../lib/gcc/arm-none-eabi/11.3.1/thumb/v7e-m+fp/hard\libgcc.a(_arm_unorddf2.o)
 .debug_frame   0x00004d98       0x24 i:/mcu/gnu_tools_for_arm/11.3_rel1/bin/../lib/gcc/arm-none-eabi/11.3.1/thumb/v7e-m+fp/hard\libgcc.a(_arm_fixdfsi.o)

.debug_loclists
                0x00000000    0x12213
 .debug_loclists
                0x00000000       0x20 i:/mcu/gnu_tools_for_arm/11.3_rel1/bin/../lib/gcc/arm-none-eabi/11.3.1/thumb/v7e-m+fp/hard\libc.a(libc_a-exit.o)
 .debug_loclists
                0x00000020      0x2b6 i:/mcu/gnu_tools_for_arm/11.3_rel1/bin/../lib/gcc/arm-none-eabi/11.3.1/thumb/v7e-m+fp/hard\libc.a(libc_a-findfp.o)
 .debug_loclists
                0x000002d6       0x95 i:/mcu/gnu_tools_for_arm/11.3_rel1/bin/../lib/gcc/arm-none-eabi/11.3.1/thumb/v7e-m+fp/hard\libc.a(libc_a-fwalk.o)
 .debug_loclists
                0x0000036b       0x79 i:/mcu/gnu_tools_for_arm/11.3_rel1/bin/../lib/gcc/arm-none-eabi/11.3.1/thumb/v7e-m+fp/hard\libc.a(libc_a-sprintf.o)
 .debug_loclists
                0x000003e4      0x234 i:/mcu/gnu_tools_for_arm/11.3_rel1/bin/../lib/gcc/arm-none-eabi/11.3.1/thumb/v7e-m+fp/hard\libc.a(libc_a-stdio.o)
 .debug_loclists
                0x00000618      0x1a5 i:/mcu/gnu_tools_for_arm/11.3_rel1/bin/../lib/gcc/arm-none-eabi/11.3.1/thumb/v7e-m+fp/hard\libc.a(libc_a-memset.o)
 .debug_loclists
                0x000007bd       0x4c i:/mcu/gnu_tools_for_arm/11.3_rel1/bin/../lib/gcc/arm-none-eabi/11.3.1/thumb/v7e-m+fp/hard\libc.a(libc_a-closer.o)
 .debug_loclists
                0x00000809       0x5e i:/mcu/gnu_tools_for_arm/11.3_rel1/bin/../lib/gcc/arm-none-eabi/11.3.1/thumb/v7e-m+fp/hard\libc.a(libc_a-reent.o)
 .debug_loclists
                0x00000867       0x9d i:/mcu/gnu_tools_for_arm/11.3_rel1/bin/../lib/gcc/arm-none-eabi/11.3.1/thumb/v7e-m+fp/hard\libc.a(libc_a-lseekr.o)
 .debug_loclists
                0x00000904       0x9d i:/mcu/gnu_tools_for_arm/11.3_rel1/bin/../lib/gcc/arm-none-eabi/11.3.1/thumb/v7e-m+fp/hard\libc.a(libc_a-readr.o)
 .debug_loclists
                0x000009a1       0x9d i:/mcu/gnu_tools_for_arm/11.3_rel1/bin/../lib/gcc/arm-none-eabi/11.3.1/thumb/v7e-m+fp/hard\libc.a(libc_a-writer.o)
 .debug_loclists
                0x00000a3e       0x7a i:/mcu/gnu_tools_for_arm/11.3_rel1/bin/../lib/gcc/arm-none-eabi/11.3.1/thumb/v7e-m+fp/hard\libc.a(libc_a-init.o)
 .debug_loclists
                0x00000ab8       0x23 i:/mcu/gnu_tools_for_arm/11.3_rel1/bin/../lib/gcc/arm-none-eabi/11.3.1/thumb/v7e-m+fp/hard\libc.a(libc_a-lock.o)
 .debug_loclists
                0x00000adb      0x12a i:/mcu/gnu_tools_for_arm/11.3_rel1/bin/../lib/gcc/arm-none-eabi/11.3.1/thumb/v7e-m+fp/hard\libc.a(libc_a-__call_atexit.o)
 .debug_loclists
                0x00000c05       0x2a i:/mcu/gnu_tools_for_arm/11.3_rel1/bin/../lib/gcc/arm-none-eabi/11.3.1/thumb/v7e-m+fp/hard\libc.a(libc_a-atexit.o)
 .debug_loclists
                0x00000c2f      0x489 i:/mcu/gnu_tools_for_arm/11.3_rel1/bin/../lib/gcc/arm-none-eabi/11.3.1/thumb/v7e-m+fp/hard\libc.a(libc_a-freer.o)
 .debug_loclists
                0x000010b8      0xa6b i:/mcu/gnu_tools_for_arm/11.3_rel1/bin/../lib/gcc/arm-none-eabi/11.3.1/thumb/v7e-m+fp/hard\libc.a(libc_a-mallocr.o)
 .debug_loclists
                0x00001b23       0x3a i:/mcu/gnu_tools_for_arm/11.3_rel1/bin/../lib/gcc/arm-none-eabi/11.3.1/thumb/v7e-m+fp/hard\libc.a(libc_a-mlock.o)
 .debug_loclists
                0x00001b5d     0x3314 i:/mcu/gnu_tools_for_arm/11.3_rel1/bin/../lib/gcc/arm-none-eabi/11.3.1/thumb/v7e-m+fp/hard\libc.a(libc_a-svfprintf.o)
 .debug_loclists
                0x00004e71       0xd4 i:/mcu/gnu_tools_for_arm/11.3_rel1/bin/../lib/gcc/arm-none-eabi/11.3.1/thumb/v7e-m+fp/hard\libc.a(libc_a-fclose.o)
 .debug_loclists
                0x00004f45      0x2ce i:/mcu/gnu_tools_for_arm/11.3_rel1/bin/../lib/gcc/arm-none-eabi/11.3.1/thumb/v7e-m+fp/hard\libc.a(libc_a-fflush.o)
 .debug_loclists
                0x00005213      0x107 i:/mcu/gnu_tools_for_arm/11.3_rel1/bin/../lib/gcc/arm-none-eabi/11.3.1/thumb/v7e-m+fp/hard\libc.a(libc_a-strncpy.o)
 .debug_loclists
                0x0000531a      0x987 i:/mcu/gnu_tools_for_arm/11.3_rel1/bin/../lib/gcc/arm-none-eabi/11.3.1/thumb/v7e-m+fp/hard\libc.a(libc_a-locale.o)
 .debug_loclists
                0x00005ca1       0x51 i:/mcu/gnu_tools_for_arm/11.3_rel1/bin/../lib/gcc/arm-none-eabi/11.3.1/thumb/v7e-m+fp/hard\libc.a(libc_a-localeconv.o)
 .debug_loclists
                0x00005cf2       0x4c i:/mcu/gnu_tools_for_arm/11.3_rel1/bin/../lib/gcc/arm-none-eabi/11.3.1/thumb/v7e-m+fp/hard\libc.a(libc_a-sbrkr.o)
 .debug_loclists
                0x00005d3e       0x4c i:/mcu/gnu_tools_for_arm/11.3_rel1/bin/../lib/gcc/arm-none-eabi/11.3.1/thumb/v7e-m+fp/hard\libc.a(libc_a-fini.o)
 .debug_loclists
                0x00005d8a       0x26 i:/mcu/gnu_tools_for_arm/11.3_rel1/bin/../lib/gcc/arm-none-eabi/11.3.1/thumb/v7e-m+fp/hard\libc.a(libc_a-strcpy.o)
 .debug_loclists
                0x00005db0       0xb3 i:/mcu/gnu_tools_for_arm/11.3_rel1/bin/../lib/gcc/arm-none-eabi/11.3.1/thumb/v7e-m+fp/hard\libc.a(libm_a-s_frexp.o)
 .debug_loclists
                0x00005e63       0x8e i:/mcu/gnu_tools_for_arm/11.3_rel1/bin/../lib/gcc/arm-none-eabi/11.3.1/thumb/v7e-m+fp/hard\libc.a(libc_a-__atexit.o)
 .debug_loclists
                0x00005ef1     0x2423 i:/mcu/gnu_tools_for_arm/11.3_rel1/bin/../lib/gcc/arm-none-eabi/11.3.1/thumb/v7e-m+fp/hard\libc.a(libc_a-dtoa.o)
 .debug_loclists
                0x00008314      0x108 i:/mcu/gnu_tools_for_arm/11.3_rel1/bin/../lib/gcc/arm-none-eabi/11.3.1/thumb/v7e-m+fp/hard\libc.a(libc_a-getenv_r.o)
 .debug_loclists
                0x0000841c      0xa16 i:/mcu/gnu_tools_for_arm/11.3_rel1/bin/../lib/gcc/arm-none-eabi/11.3.1/thumb/v7e-m+fp/hard\libc.a(libc_a-mbtowc_r.o)
 .debug_loclists
                0x00008e32     0x1906 i:/mcu/gnu_tools_for_arm/11.3_rel1/bin/../lib/gcc/arm-none-eabi/11.3.1/thumb/v7e-m+fp/hard\libc.a(libc_a-mprec.o)
 .debug_loclists
                0x0000a738      0x589 i:/mcu/gnu_tools_for_arm/11.3_rel1/bin/../lib/gcc/arm-none-eabi/11.3.1/thumb/v7e-m+fp/hard\libc.a(libc_a-strtol.o)
 .debug_loclists
                0x0000acc1      0x5db i:/mcu/gnu_tools_for_arm/11.3_rel1/bin/../lib/gcc/arm-none-eabi/11.3.1/thumb/v7e-m+fp/hard\libc.a(libc_a-wctomb_r.o)
 .debug_loclists
                0x0000b29c      0x18b i:/mcu/gnu_tools_for_arm/11.3_rel1/bin/../lib/gcc/arm-none-eabi/11.3.1/thumb/v7e-m+fp/hard\libc.a(libc_a-wcrtomb.o)
 .debug_loclists
                0x0000b427       0xea i:/mcu/gnu_tools_for_arm/11.3_rel1/bin/../lib/gcc/arm-none-eabi/11.3.1/thumb/v7e-m+fp/hard\libc.a(libc_a-wcsrtombs.o)
 .debug_loclists
                0x0000b511       0x18 i:/mcu/gnu_tools_for_arm/11.3_rel1/bin/../lib/gcc/arm-none-eabi/11.3.1/thumb/v7e-m+fp/hard\libc.a(libc_a-ctype_.o)
 .debug_loclists
                0x0000b529     0x163c i:/mcu/gnu_tools_for_arm/11.3_rel1/bin/../lib/gcc/arm-none-eabi/11.3.1/thumb/v7e-m+fp/hard\libc.a(libc_a-svfiprintf.o)
 .debug_loclists
                0x0000cb65      0x224 i:/mcu/gnu_tools_for_arm/11.3_rel1/bin/../lib/gcc/arm-none-eabi/11.3.1/thumb/v7e-m+fp/hard\libc.a(libc_a-memmove.o)
 .debug_loclists
                0x0000cd89      0x18f i:/mcu/gnu_tools_for_arm/11.3_rel1/bin/../lib/gcc/arm-none-eabi/11.3.1/thumb/v7e-m+fp/hard\libc.a(libc_a-strcasecmp.o)
 .debug_loclists
                0x0000cf18       0x7f i:/mcu/gnu_tools_for_arm/11.3_rel1/bin/../lib/gcc/arm-none-eabi/11.3.1/thumb/v7e-m+fp/hard\libc.a(libc_a-strcat.o)
 .debug_loclists
                0x0000cf97      0x146 i:/mcu/gnu_tools_for_arm/11.3_rel1/bin/../lib/gcc/arm-none-eabi/11.3.1/thumb/v7e-m+fp/hard\libc.a(libc_a-strchr.o)
 .debug_loclists
                0x0000d0dd      0x13b i:/mcu/gnu_tools_for_arm/11.3_rel1/bin/../lib/gcc/arm-none-eabi/11.3.1/thumb/v7e-m+fp/hard\libc.a(libc_a-strlcpy.o)
 .debug_loclists
                0x0000d218      0x271 i:/mcu/gnu_tools_for_arm/11.3_rel1/bin/../lib/gcc/arm-none-eabi/11.3.1/thumb/v7e-m+fp/hard\libc.a(libc_a-strncasecmp.o)
 .debug_loclists
                0x0000d489      0x120 i:/mcu/gnu_tools_for_arm/11.3_rel1/bin/../lib/gcc/arm-none-eabi/11.3.1/thumb/v7e-m+fp/hard\libc.a(libc_a-strncmp.o)
 .debug_loclists
                0x0000d5a9       0xf3 i:/mcu/gnu_tools_for_arm/11.3_rel1/bin/../lib/gcc/arm-none-eabi/11.3.1/thumb/v7e-m+fp/hard\libc.a(libc_a-assert.o)
 .debug_loclists
                0x0000d69c      0x1eb i:/mcu/gnu_tools_for_arm/11.3_rel1/bin/../lib/gcc/arm-none-eabi/11.3.1/thumb/v7e-m+fp/hard\libc.a(libc_a-callocr.o)
 .debug_loclists
                0x0000d887       0x3a i:/mcu/gnu_tools_for_arm/11.3_rel1/bin/../lib/gcc/arm-none-eabi/11.3.1/thumb/v7e-m+fp/hard\libc.a(libc_a-envlock.o)
 .debug_loclists
                0x0000d8c1     0x10df i:/mcu/gnu_tools_for_arm/11.3_rel1/bin/../lib/gcc/arm-none-eabi/11.3.1/thumb/v7e-m+fp/hard\libc.a(libc_a-reallocr.o)
 .debug_loclists
                0x0000e9a0      0x4a9 i:/mcu/gnu_tools_for_arm/11.3_rel1/bin/../lib/gcc/arm-none-eabi/11.3.1/thumb/v7e-m+fp/hard\libc.a(libc_a-wcsnrtombs.o)
 .debug_loclists
                0x0000ee49       0x6e i:/mcu/gnu_tools_for_arm/11.3_rel1/bin/../lib/gcc/arm-none-eabi/11.3.1/thumb/v7e-m+fp/hard\libc.a(libc_a-fiprintf.o)
 .debug_loclists
                0x0000eeb7     0x2104 i:/mcu/gnu_tools_for_arm/11.3_rel1/bin/../lib/gcc/arm-none-eabi/11.3.1/thumb/v7e-m+fp/hard\libc.a(libc_a-vfiprintf.o)
 .debug_loclists
                0x00010fbb      0x50e i:/mcu/gnu_tools_for_arm/11.3_rel1/bin/../lib/gcc/arm-none-eabi/11.3.1/thumb/v7e-m+fp/hard\libc.a(libc_a-fvwrite.o)
 .debug_loclists
                0x000114c9       0xaa i:/mcu/gnu_tools_for_arm/11.3_rel1/bin/../lib/gcc/arm-none-eabi/11.3.1/thumb/v7e-m+fp/hard\libc.a(libc_a-wsetup.o)
 .debug_loclists
                0x00011573      0x23b i:/mcu/gnu_tools_for_arm/11.3_rel1/bin/../lib/gcc/arm-none-eabi/11.3.1/thumb/v7e-m+fp/hard\libc.a(libc_a-fputwc.o)
 .debug_loclists
                0x000117ae      0x26b i:/mcu/gnu_tools_for_arm/11.3_rel1/bin/../lib/gcc/arm-none-eabi/11.3.1/thumb/v7e-m+fp/hard\libc.a(libc_a-makebuf.o)
 .debug_loclists
                0x00011a19      0x11a i:/mcu/gnu_tools_for_arm/11.3_rel1/bin/../lib/gcc/arm-none-eabi/11.3.1/thumb/v7e-m+fp/hard\libc.a(libc_a-wbuf.o)
 .debug_loclists
                0x00011b33      0x569 i:/mcu/gnu_tools_for_arm/11.3_rel1/bin/../lib/gcc/arm-none-eabi/11.3.1/thumb/v7e-m+fp/hard\libc.a(libc_a-signal.o)
 .debug_loclists
                0x0001209c       0x71 i:/mcu/gnu_tools_for_arm/11.3_rel1/bin/../lib/gcc/arm-none-eabi/11.3.1/thumb/v7e-m+fp/hard\libc.a(libc_a-fstatr.o)
 .debug_loclists
                0x0001210d       0x4c i:/mcu/gnu_tools_for_arm/11.3_rel1/bin/../lib/gcc/arm-none-eabi/11.3.1/thumb/v7e-m+fp/hard\libc.a(libc_a-isattyr.o)
 .debug_loclists
                0x00012159       0x88 i:/mcu/gnu_tools_for_arm/11.3_rel1/bin/../lib/gcc/arm-none-eabi/11.3.1/thumb/v7e-m+fp/hard\libc.a(libc_a-signalr.o)
 .debug_loclists
                0x000121e1       0x32 i:/mcu/gnu_tools_for_arm/11.3_rel1/bin/../lib/gcc/arm-none-eabi/11.3.1/thumb/v7e-m+fp/hard\libnosys.a(sbrk.o)

.debug_rnglists
                0x00000000      0xf70
 .debug_rnglists
                0x00000000       0x13 i:/mcu/gnu_tools_for_arm/11.3_rel1/bin/../lib/gcc/arm-none-eabi/11.3.1/thumb/v7e-m+fp/hard\libc.a(libc_a-exit.o)
 .debug_rnglists
                0x00000013      0x123 i:/mcu/gnu_tools_for_arm/11.3_rel1/bin/../lib/gcc/arm-none-eabi/11.3.1/thumb/v7e-m+fp/hard\libc.a(libc_a-findfp.o)
 .debug_rnglists
                0x00000136       0x13 i:/mcu/gnu_tools_for_arm/11.3_rel1/bin/../lib/gcc/arm-none-eabi/11.3.1/thumb/v7e-m+fp/hard\libc.a(libc_a-fwalk.o)
 .debug_rnglists
                0x00000149       0x19 i:/mcu/gnu_tools_for_arm/11.3_rel1/bin/../lib/gcc/arm-none-eabi/11.3.1/thumb/v7e-m+fp/hard\libc.a(libc_a-sprintf.o)
 .debug_rnglists
                0x00000162       0x2b i:/mcu/gnu_tools_for_arm/11.3_rel1/bin/../lib/gcc/arm-none-eabi/11.3.1/thumb/v7e-m+fp/hard\libc.a(libc_a-stdio.o)
 .debug_rnglists
                0x0000018d       0x14 i:/mcu/gnu_tools_for_arm/11.3_rel1/bin/../lib/gcc/arm-none-eabi/11.3.1/thumb/v7e-m+fp/hard\libc.a(libc_a-memset.o)
 .debug_rnglists
                0x000001a1       0x13 i:/mcu/gnu_tools_for_arm/11.3_rel1/bin/../lib/gcc/arm-none-eabi/11.3.1/thumb/v7e-m+fp/hard\libc.a(libc_a-closer.o)
 .debug_rnglists
                0x000001b4       0x13 i:/mcu/gnu_tools_for_arm/11.3_rel1/bin/../lib/gcc/arm-none-eabi/11.3.1/thumb/v7e-m+fp/hard\libc.a(libc_a-reent.o)
 .debug_rnglists
                0x000001c7       0x13 i:/mcu/gnu_tools_for_arm/11.3_rel1/bin/../lib/gcc/arm-none-eabi/11.3.1/thumb/v7e-m+fp/hard\libc.a(libc_a-lseekr.o)
 .debug_rnglists
                0x000001da       0x13 i:/mcu/gnu_tools_for_arm/11.3_rel1/bin/../lib/gcc/arm-none-eabi/11.3.1/thumb/v7e-m+fp/hard\libc.a(libc_a-readr.o)
 .debug_rnglists
                0x000001ed       0x13 i:/mcu/gnu_tools_for_arm/11.3_rel1/bin/../lib/gcc/arm-none-eabi/11.3.1/thumb/v7e-m+fp/hard\libc.a(libc_a-writer.o)
 .debug_rnglists
                0x00000200       0x13 i:/mcu/gnu_tools_for_arm/11.3_rel1/bin/../lib/gcc/arm-none-eabi/11.3.1/thumb/v7e-m+fp/hard\libc.a(libc_a-errno.o)
 .debug_rnglists
                0x00000213       0x13 i:/mcu/gnu_tools_for_arm/11.3_rel1/bin/../lib/gcc/arm-none-eabi/11.3.1/thumb/v7e-m+fp/hard\libc.a(libc_a-init.o)
 .debug_rnglists
                0x00000226       0x19 i:/mcu/gnu_tools_for_arm/11.3_rel1/bin/../lib/gcc/arm-none-eabi/11.3.1/thumb/v7e-m+fp/hard\libc.a(libc_a-lock.o)
 .debug_rnglists
                0x0000023f       0x35 i:/mcu/gnu_tools_for_arm/11.3_rel1/bin/../lib/gcc/arm-none-eabi/11.3.1/thumb/v7e-m+fp/hard\libc.a(libc_a-__call_atexit.o)
 .debug_rnglists
                0x00000274       0x13 i:/mcu/gnu_tools_for_arm/11.3_rel1/bin/../lib/gcc/arm-none-eabi/11.3.1/thumb/v7e-m+fp/hard\libc.a(libc_a-atexit.o)
 .debug_rnglists
                0x00000287       0x1b i:/mcu/gnu_tools_for_arm/11.3_rel1/bin/../lib/gcc/arm-none-eabi/11.3.1/thumb/v7e-m+fp/hard\libc.a(libc_a-freer.o)
 .debug_rnglists
                0x000002a2       0x4b i:/mcu/gnu_tools_for_arm/11.3_rel1/bin/../lib/gcc/arm-none-eabi/11.3.1/thumb/v7e-m+fp/hard\libc.a(libc_a-mallocr.o)
 .debug_rnglists
                0x000002ed       0x19 i:/mcu/gnu_tools_for_arm/11.3_rel1/bin/../lib/gcc/arm-none-eabi/11.3.1/thumb/v7e-m+fp/hard\libc.a(libc_a-mlock.o)
 .debug_rnglists
                0x00000306      0x17b i:/mcu/gnu_tools_for_arm/11.3_rel1/bin/../lib/gcc/arm-none-eabi/11.3.1/thumb/v7e-m+fp/hard\libc.a(libc_a-svfprintf.o)
 .debug_rnglists
                0x00000481       0x28 i:/mcu/gnu_tools_for_arm/11.3_rel1/bin/../lib/gcc/arm-none-eabi/11.3.1/thumb/v7e-m+fp/hard\libc.a(libc_a-fclose.o)
 .debug_rnglists
                0x000004a9       0x71 i:/mcu/gnu_tools_for_arm/11.3_rel1/bin/../lib/gcc/arm-none-eabi/11.3.1/thumb/v7e-m+fp/hard\libc.a(libc_a-fflush.o)
 .debug_rnglists
                0x0000051a       0x13 i:/mcu/gnu_tools_for_arm/11.3_rel1/bin/../lib/gcc/arm-none-eabi/11.3.1/thumb/v7e-m+fp/hard\libc.a(libc_a-strncpy.o)
 .debug_rnglists
                0x0000052d       0x56 i:/mcu/gnu_tools_for_arm/11.3_rel1/bin/../lib/gcc/arm-none-eabi/11.3.1/thumb/v7e-m+fp/hard\libc.a(libc_a-locale.o)
 .debug_rnglists
                0x00000583       0x1f i:/mcu/gnu_tools_for_arm/11.3_rel1/bin/../lib/gcc/arm-none-eabi/11.3.1/thumb/v7e-m+fp/hard\libc.a(libc_a-localeconv.o)
 .debug_rnglists
                0x000005a2       0x13 i:/mcu/gnu_tools_for_arm/11.3_rel1/bin/../lib/gcc/arm-none-eabi/11.3.1/thumb/v7e-m+fp/hard\libc.a(libc_a-sbrkr.o)
 .debug_rnglists
                0x000005b5       0x13 i:/mcu/gnu_tools_for_arm/11.3_rel1/bin/../lib/gcc/arm-none-eabi/11.3.1/thumb/v7e-m+fp/hard\libc.a(libc_a-fini.o)
 .debug_rnglists
                0x000005c8       0x14 i:/mcu/gnu_tools_for_arm/11.3_rel1/bin/../lib/gcc/arm-none-eabi/11.3.1/thumb/v7e-m+fp/hard\libc.a(libc_a-strcpy.o)
 .debug_rnglists
                0x000005dc       0x31 i:/mcu/gnu_tools_for_arm/11.3_rel1/bin/../lib/gcc/arm-none-eabi/11.3.1/thumb/v7e-m+fp/hard\libc.a(libm_a-s_frexp.o)
 .debug_rnglists
                0x0000060d       0x14 i:/mcu/gnu_tools_for_arm/11.3_rel1/bin/../lib/gcc/arm-none-eabi/11.3.1/thumb/v7e-m+fp/hard\libc.a(libc_a-__atexit.o)
 .debug_rnglists
                0x00000621       0x3c i:/mcu/gnu_tools_for_arm/11.3_rel1/bin/../lib/gcc/arm-none-eabi/11.3.1/thumb/v7e-m+fp/hard\libc.a(libc_a-dtoa.o)
 .debug_rnglists
                0x0000065d       0x1a i:/mcu/gnu_tools_for_arm/11.3_rel1/bin/../lib/gcc/arm-none-eabi/11.3.1/thumb/v7e-m+fp/hard\libc.a(libc_a-getenv_r.o)
 .debug_rnglists
                0x00000677       0x63 i:/mcu/gnu_tools_for_arm/11.3_rel1/bin/../lib/gcc/arm-none-eabi/11.3.1/thumb/v7e-m+fp/hard\libc.a(libc_a-mbtowc_r.o)
 .debug_rnglists
                0x000006da      0x140 i:/mcu/gnu_tools_for_arm/11.3_rel1/bin/../lib/gcc/arm-none-eabi/11.3.1/thumb/v7e-m+fp/hard\libc.a(libc_a-mprec.o)
 .debug_rnglists
                0x0000081a       0x39 i:/mcu/gnu_tools_for_arm/11.3_rel1/bin/../lib/gcc/arm-none-eabi/11.3.1/thumb/v7e-m+fp/hard\libc.a(libc_a-strtol.o)
 .debug_rnglists
                0x00000853       0x32 i:/mcu/gnu_tools_for_arm/11.3_rel1/bin/../lib/gcc/arm-none-eabi/11.3.1/thumb/v7e-m+fp/hard\libc.a(libc_a-wctomb_r.o)
 .debug_rnglists
                0x00000885       0x19 i:/mcu/gnu_tools_for_arm/11.3_rel1/bin/../lib/gcc/arm-none-eabi/11.3.1/thumb/v7e-m+fp/hard\libc.a(libc_a-wcrtomb.o)
 .debug_rnglists
                0x0000089e       0x19 i:/mcu/gnu_tools_for_arm/11.3_rel1/bin/../lib/gcc/arm-none-eabi/11.3.1/thumb/v7e-m+fp/hard\libc.a(libc_a-wcsrtombs.o)
 .debug_rnglists
                0x000008b7       0x13 i:/mcu/gnu_tools_for_arm/11.3_rel1/bin/../lib/gcc/arm-none-eabi/11.3.1/thumb/v7e-m+fp/hard\libc.a(libc_a-ctype_.o)
 .debug_rnglists
                0x000008ca       0x89 i:/mcu/gnu_tools_for_arm/11.3_rel1/bin/../lib/gcc/arm-none-eabi/11.3.1/thumb/v7e-m+fp/hard\libc.a(libc_a-svfiprintf.o)
 .debug_rnglists
                0x00000953       0x14 i:/mcu/gnu_tools_for_arm/11.3_rel1/bin/../lib/gcc/arm-none-eabi/11.3.1/thumb/v7e-m+fp/hard\libc.a(libc_a-memmove.o)
 .debug_rnglists
                0x00000967       0x3d i:/mcu/gnu_tools_for_arm/11.3_rel1/bin/../lib/gcc/arm-none-eabi/11.3.1/thumb/v7e-m+fp/hard\libc.a(libc_a-strcasecmp.o)
 .debug_rnglists
                0x000009a4       0x13 i:/mcu/gnu_tools_for_arm/11.3_rel1/bin/../lib/gcc/arm-none-eabi/11.3.1/thumb/v7e-m+fp/hard\libc.a(libc_a-strcat.o)
 .debug_rnglists
                0x000009b7       0x14 i:/mcu/gnu_tools_for_arm/11.3_rel1/bin/../lib/gcc/arm-none-eabi/11.3.1/thumb/v7e-m+fp/hard\libc.a(libc_a-strchr.o)
 .debug_rnglists
                0x000009cb       0x13 i:/mcu/gnu_tools_for_arm/11.3_rel1/bin/../lib/gcc/arm-none-eabi/11.3.1/thumb/v7e-m+fp/hard\libc.a(libc_a-strlcpy.o)
 .debug_rnglists
                0x000009de       0x49 i:/mcu/gnu_tools_for_arm/11.3_rel1/bin/../lib/gcc/arm-none-eabi/11.3.1/thumb/v7e-m+fp/hard\libc.a(libc_a-strncasecmp.o)
 .debug_rnglists
                0x00000a27       0x14 i:/mcu/gnu_tools_for_arm/11.3_rel1/bin/../lib/gcc/arm-none-eabi/11.3.1/thumb/v7e-m+fp/hard\libc.a(libc_a-strncmp.o)
 .debug_rnglists
                0x00000a3b       0x19 i:/mcu/gnu_tools_for_arm/11.3_rel1/bin/../lib/gcc/arm-none-eabi/11.3.1/thumb/v7e-m+fp/hard\libc.a(libc_a-assert.o)
 .debug_rnglists
                0x00000a54       0x37 i:/mcu/gnu_tools_for_arm/11.3_rel1/bin/../lib/gcc/arm-none-eabi/11.3.1/thumb/v7e-m+fp/hard\libc.a(libc_a-callocr.o)
 .debug_rnglists
                0x00000a8b       0x19 i:/mcu/gnu_tools_for_arm/11.3_rel1/bin/../lib/gcc/arm-none-eabi/11.3.1/thumb/v7e-m+fp/hard\libc.a(libc_a-envlock.o)
 .debug_rnglists
                0x00000aa4       0xef i:/mcu/gnu_tools_for_arm/11.3_rel1/bin/../lib/gcc/arm-none-eabi/11.3.1/thumb/v7e-m+fp/hard\libc.a(libc_a-reallocr.o)
 .debug_rnglists
                0x00000b93       0x3f i:/mcu/gnu_tools_for_arm/11.3_rel1/bin/../lib/gcc/arm-none-eabi/11.3.1/thumb/v7e-m+fp/hard\libc.a(libc_a-wcsnrtombs.o)
 .debug_rnglists
                0x00000bd2       0x19 i:/mcu/gnu_tools_for_arm/11.3_rel1/bin/../lib/gcc/arm-none-eabi/11.3.1/thumb/v7e-m+fp/hard\libc.a(libc_a-fiprintf.o)
 .debug_rnglists
                0x00000beb      0x15c i:/mcu/gnu_tools_for_arm/11.3_rel1/bin/../lib/gcc/arm-none-eabi/11.3.1/thumb/v7e-m+fp/hard\libc.a(libc_a-vfiprintf.o)
 .debug_rnglists
                0x00000d47       0x3b i:/mcu/gnu_tools_for_arm/11.3_rel1/bin/../lib/gcc/arm-none-eabi/11.3.1/thumb/v7e-m+fp/hard\libc.a(libc_a-fvwrite.o)
 .debug_rnglists
                0x00000d82       0x28 i:/mcu/gnu_tools_for_arm/11.3_rel1/bin/../lib/gcc/arm-none-eabi/11.3.1/thumb/v7e-m+fp/hard\libc.a(libc_a-wsetup.o)
 .debug_rnglists
                0x00000daa       0x4a i:/mcu/gnu_tools_for_arm/11.3_rel1/bin/../lib/gcc/arm-none-eabi/11.3.1/thumb/v7e-m+fp/hard\libc.a(libc_a-fputwc.o)
 .debug_rnglists
                0x00000df4       0x13 i:/mcu/gnu_tools_for_arm/11.3_rel1/bin/../lib/gcc/arm-none-eabi/11.3.1/thumb/v7e-m+fp/hard\libc.a(libc_a-abort.o)
 .debug_rnglists
                0x00000e07       0x55 i:/mcu/gnu_tools_for_arm/11.3_rel1/bin/../lib/gcc/arm-none-eabi/11.3.1/thumb/v7e-m+fp/hard\libc.a(libc_a-makebuf.o)
 .debug_rnglists
                0x00000e5c       0x2b i:/mcu/gnu_tools_for_arm/11.3_rel1/bin/../lib/gcc/arm-none-eabi/11.3.1/thumb/v7e-m+fp/hard\libc.a(libc_a-wbuf.o)
 .debug_rnglists
                0x00000e87       0x97 i:/mcu/gnu_tools_for_arm/11.3_rel1/bin/../lib/gcc/arm-none-eabi/11.3.1/thumb/v7e-m+fp/hard\libc.a(libc_a-signal.o)
 .debug_rnglists
                0x00000f1e       0x13 i:/mcu/gnu_tools_for_arm/11.3_rel1/bin/../lib/gcc/arm-none-eabi/11.3.1/thumb/v7e-m+fp/hard\libc.a(libc_a-fstatr.o)
 .debug_rnglists
                0x00000f31       0x13 i:/mcu/gnu_tools_for_arm/11.3_rel1/bin/../lib/gcc/arm-none-eabi/11.3.1/thumb/v7e-m+fp/hard\libc.a(libc_a-isattyr.o)
 .debug_rnglists
                0x00000f44       0x19 i:/mcu/gnu_tools_for_arm/11.3_rel1/bin/../lib/gcc/arm-none-eabi/11.3.1/thumb/v7e-m+fp/hard\libc.a(libc_a-signalr.o)
 .debug_rnglists
                0x00000f5d       0x13 i:/mcu/gnu_tools_for_arm/11.3_rel1/bin/../lib/gcc/arm-none-eabi/11.3.1/thumb/v7e-m+fp/hard\libnosys.a(sbrk.o)

Cross Reference Table

Symbol                                            File
ADC14_IRQHandler                                  build/startup_msp432p401r_gcc.o
AES256_IRQHandler                                 build/startup_msp432p401r_gcc.o
BusFault_Handler                                  build/startup_msp432p401r_gcc.o
COMP_E0_IRQHandler                                build/startup_msp432p401r_gcc.o
COMP_E1_IRQHandler                                build/startup_msp432p401r_gcc.o
CPU_basepriGet                                    build/cpu.o
                                                  build/interrupt.o
CPU_basepriSet                                    build/cpu.o
                                                  build/interrupt.o
CPU_cpsid                                         build/cpu.o
                                                  build/interrupt.o
CPU_cpsie                                         build/cpu.o
                                                  build/interrupt.o
CPU_primask                                       build/cpu.o
                                                  build/flash.o
CPU_wfi                                           build/cpu.o
                                                  build/pcm.o
CS_IRQHandler                                     build/startup_msp432p401r_gcc.o
CS_clearInterruptFlag                             build/cs.o
CS_disableClockRequest                            build/cs.o
CS_disableDCOExternalResistor                     build/cs.o
CS_disableFaultCounter                            build/cs.o
CS_disableInterrupt                               build/cs.o
CS_enableClockRequest                             build/cs.o
CS_enableDCOExternalResistor                      build/cs.o
CS_enableFaultCounter                             build/cs.o
CS_enableInterrupt                                build/cs.o
CS_getACLK                                        build/cs.o
                                                  build/main.o
CS_getBCLK                                        build/cs.o
                                                  build/main.o
CS_getDCOFrequency                                build/cs.o
CS_getEnabledInterruptStatus                      build/cs.o
CS_getHSMCLK                                      build/cs.o
                                                  build/main.o
CS_getInterruptStatus                             build/cs.o
CS_getMCLK                                        build/cs.o
                                                  build/main.o
CS_getSMCLK                                       build/cs.o
                                                  build/main.o
CS_initClockSignal                                build/cs.o
                                                  build/main.o
CS_registerInterrupt                              build/cs.o
CS_resetFaultCounter                              build/cs.o
CS_setDCOCenteredFrequency                        build/cs.o
CS_setDCOExternalResistorCalibration              build/cs.o
CS_setDCOFrequency                                build/cs.o
CS_setExternalClockSourceFrequency                build/cs.o
                                                  build/main.o
CS_setReferenceOscillatorFrequency                build/cs.o
CS_startFaultCounter                              build/cs.o
CS_startHFXT                                      build/cs.o
                                                  build/main.o
CS_startHFXTWithTimeout                           build/cs.o
CS_startLFXT                                      build/cs.o
CS_startLFXTWithTimeout                           build/cs.o
CS_tuneDCOFrequency                               build/cs.o
CS_unregisterInterrupt                            build/cs.o
Clock_Configuration                               build/main.o
Clock_Information                                 build/main.o
DMA_Config_Source                                 build/user_dma.o
                                                  build/user_uart.o
DMA_Disable_Channel                               build/user_dma.o
                                                  build/user_uart.o
DMA_ERR_IRQHandler                                build/startup_msp432p401r_gcc.o
DMA_Enable_Channel                                build/user_dma.o
                                                  build/user_uart.o
DMA_INT0_IRQHandler                               build/startup_msp432p401r_gcc.o
DMA_INT1_IRQHandler                               build/startup_msp432p401r_gcc.o
DMA_INT2_IRQHandler                               build/startup_msp432p401r_gcc.o
DMA_INT3_IRQHandler                               build/startup_msp432p401r_gcc.o
DMA_Specify_Ctrl                                  build/user_dma.o
                                                  build/user_uart.o
DMA_Specify_Src                                   build/user_dma.o
                                                  build/user_uart.o
D_Printf                                          build/user_uart.o
                                                  build/main.o
D_Send_Nchar                                      build/user_uart.o
D_Send_String                                     build/user_uart.o
DebugMon_Handler                                  build/startup_msp432p401r_gcc.o
Default_Handler                                   build/startup_msp432p401r_gcc.o
EUSCIA0_IRQHandler                                build/startup_msp432p401r_gcc.o
EUSCIA1_IRQHandler                                build/startup_msp432p401r_gcc.o
EUSCIA2_IRQHandler                                build/startup_msp432p401r_gcc.o
EUSCIA3_IRQHandler                                build/startup_msp432p401r_gcc.o
EUSCIB0_IRQHandler                                build/startup_msp432p401r_gcc.o
EUSCIB1_IRQHandler                                build/startup_msp432p401r_gcc.o
EUSCIB2_IRQHandler                                build/startup_msp432p401r_gcc.o
EUSCIB3_IRQHandler                                build/startup_msp432p401r_gcc.o
FLCTL_IRQHandler                                  build/startup_msp432p401r_gcc.o
FPU_IRQHandler                                    build/startup_msp432p401r_gcc.o
FPU_disableModule                                 build/fpu.o
FPU_disableStacking                               build/fpu.o
FPU_enableLazyStacking                            build/fpu.o
FPU_enableModule                                  build/fpu.o
FPU_enableStacking                                build/fpu.o
FPU_setFlushToZeroMode                            build/fpu.o
FPU_setHalfPrecisionMode                          build/fpu.o
FPU_setNaNMode                                    build/fpu.o
FPU_setRoundingMode                               build/fpu.o
FlashCtl_clearInterruptFlag                       build/flash.o
FlashCtl_clearProgramVerification                 build/flash.o
FlashCtl_disableInterrupt                         build/flash.o
FlashCtl_disableReadBuffering                     build/flash.o
FlashCtl_disableWordProgramming                   build/flash.o
FlashCtl_enableInterrupt                          build/flash.o
FlashCtl_enableReadBuffering                      build/flash.o
FlashCtl_enableWordProgramming                    build/flash.o
FlashCtl_eraseSector                              build/flash.o
FlashCtl_getEnabledInterruptStatus                build/flash.o
FlashCtl_getInterruptStatus                       build/flash.o
FlashCtl_getMemoryInfo                            build/flash.o
FlashCtl_getReadMode                              build/flash.o
FlashCtl_getWaitState                             build/flash.o
FlashCtl_initiateMassErase                        build/flash.o
FlashCtl_initiateSectorErase                      build/flash.o
FlashCtl_isSectorProtected                        build/flash.o
FlashCtl_isWordProgrammingEnabled                 build/flash.o
FlashCtl_performMassErase                         build/flash.o
FlashCtl_programMemory                            build/flash.o
FlashCtl_protectSector                            build/flash.o
FlashCtl_registerInterrupt                        build/flash.o
FlashCtl_setProgramVerification                   build/flash.o
FlashCtl_setReadMode                              build/flash.o
FlashCtl_setWaitState                             build/flash.o
                                                  build/main.o
FlashCtl_unprotectSector                          build/flash.o
FlashCtl_unregisterInterrupt                      build/flash.o
FlashCtl_verifyMemory                             build/flash.o
GPIO_clearInterruptFlag                           build/gpio.o
GPIO_disableInterrupt                             build/gpio.o
GPIO_enableInterrupt                              build/gpio.o
GPIO_getEnabledInterruptStatus                    build/gpio.o
GPIO_getInputPinValue                             build/gpio.o
GPIO_getInterruptStatus                           build/gpio.o
GPIO_interruptEdgeSelect                          build/gpio.o
GPIO_registerInterrupt                            build/gpio.o
GPIO_setAsInputPin                                build/gpio.o
GPIO_setAsInputPinWithPullDownResistor            build/gpio.o
GPIO_setAsInputPinWithPullUpResistor              build/gpio.o
                                                  build/iic_bus.o
GPIO_setAsOutputPin                               build/gpio.o
                                                  build/iic_bus.o
                                                  build/main.o
GPIO_setAsPeripheralModuleFunctionInputPin        build/gpio.o
                                                  build/user_uart.o
GPIO_setAsPeripheralModuleFunctionOutputPin       build/gpio.o
                                                  build/user_uart.o
                                                  build/main.o
GPIO_setDriveStrengthHigh                         build/gpio.o
GPIO_setDriveStrengthLow                          build/gpio.o
GPIO_setOutputHighOnPin                           build/gpio.o
                                                  build/iic_bus.o
                                                  build/main.o
GPIO_setOutputLowOnPin                            build/gpio.o
GPIO_toggleOutputOnPin                            build/gpio.o
GPIO_unregisterInterrupt                          build/gpio.o
HardFault_Handler                                 build/startup_msp432p401r_gcc.o
IIC_Adapter_Read                                  build/iic_bus.o
IIC_Adapter_ReceiveByte                           build/iic_bus.o
IIC_Adapter_SendByte                              build/iic_bus.o
IIC_Adapter_Start                                 build/iic_bus.o
IIC_Adapter_Stop                                  build/iic_bus.o
IIC_Adapter_Write                                 build/iic_bus.o
Interrupt_disableInterrupt                        build/interrupt.o
                                                  build/wdt_a.o
                                                  build/uart.o
                                                  build/rtc_c.o
                                                  build/pss.o
                                                  build/pcm.o
                                                  build/mpu.o
                                                  build/gpio.o
                                                  build/flash.o
                                                  build/cs.o
Interrupt_disableMaster                           build/interrupt.o
                                                  build/pcm.o
                                                  build/flash.o
Interrupt_disableSleepOnIsrExit                   build/interrupt.o
Interrupt_enableInterrupt                         build/interrupt.o
                                                  build/wdt_a.o
                                                  build/uart.o
                                                  build/rtc_c.o
                                                  build/pss.o
                                                  build/pcm.o
                                                  build/mpu.o
                                                  build/gpio.o
                                                  build/flash.o
                                                  build/cs.o
Interrupt_enableMaster                            build/interrupt.o
                                                  build/pcm.o
                                                  build/flash.o
Interrupt_enableSleepOnIsrExit                    build/interrupt.o
Interrupt_getPriority                             build/interrupt.o
Interrupt_getPriorityGrouping                     build/interrupt.o
Interrupt_getPriorityMask                         build/interrupt.o
Interrupt_getVectorTableAddress                   build/interrupt.o
Interrupt_isEnabled                               build/interrupt.o
Interrupt_pendInterrupt                           build/interrupt.o
Interrupt_registerInterrupt                       build/interrupt.o
                                                  build/wdt_a.o
                                                  build/uart.o
                                                  build/systick.o
                                                  build/rtc_c.o
                                                  build/pss.o
                                                  build/pcm.o
                                                  build/mpu.o
                                                  build/gpio.o
                                                  build/flash.o
                                                  build/cs.o
Interrupt_setPriority                             build/interrupt.o
Interrupt_setPriorityGrouping                     build/interrupt.o
Interrupt_setPriorityMask                         build/interrupt.o
Interrupt_setVectorTableAddress                   build/interrupt.o
Interrupt_unpendInterrupt                         build/interrupt.o
Interrupt_unregisterInterrupt                     build/interrupt.o
                                                  build/wdt_a.o
                                                  build/uart.o
                                                  build/systick.o
                                                  build/rtc_c.o
                                                  build/pss.o
                                                  build/pcm.o
                                                  build/mpu.o
                                                  build/gpio.o
                                                  build/flash.o
                                                  build/cs.o
MPU_disableInterrupt                              build/mpu.o
MPU_disableModule                                 build/mpu.o
MPU_disableRegion                                 build/mpu.o
MPU_enableInterrupt                               build/mpu.o
MPU_enableModule                                  build/mpu.o
MPU_enableRegion                                  build/mpu.o
MPU_getRegion                                     build/mpu.o
MPU_getRegionCount                                build/mpu.o
MPU_registerInterrupt                             build/mpu.o
MPU_setRegion                                     build/mpu.o
MPU_unregisterInterrupt                           build/mpu.o
MemManage_Handler                                 build/startup_msp432p401r_gcc.o
NMI_Handler                                       build/startup_msp432p401r_gcc.o
PCM_IRQHandler                                    build/startup_msp432p401r_gcc.o
PCM_clearInterruptFlag                            build/pcm.o
PCM_disableInterrupt                              build/pcm.o
PCM_disableRudeMode                               build/pcm.o
PCM_enableInterrupt                               build/pcm.o
PCM_enableRudeMode                                build/pcm.o
PCM_getCoreVoltageLevel                           build/pcm.o
PCM_getEnabledInterruptStatus                     build/pcm.o
PCM_getInterruptStatus                            build/pcm.o
PCM_getPowerMode                                  build/pcm.o
PCM_getPowerState                                 build/pcm.o
PCM_gotoLPM0                                      build/pcm.o
PCM_gotoLPM0InterruptSafe                         build/pcm.o
PCM_gotoLPM3                                      build/pcm.o
PCM_gotoLPM3InterruptSafe                         build/pcm.o
PCM_gotoLPM4                                      build/pcm.o
PCM_gotoLPM4InterruptSafe                         build/pcm.o
PCM_registerInterrupt                             build/pcm.o
PCM_setCoreVoltageLevel                           build/pcm.o
                                                  build/main.o
PCM_setCoreVoltageLevelNonBlocking                build/pcm.o
PCM_setCoreVoltageLevelWithTimeout                build/pcm.o
PCM_setPowerMode                                  build/pcm.o
PCM_setPowerModeNonBlocking                       build/pcm.o
PCM_setPowerModeWithTimeout                       build/pcm.o
PCM_setPowerState                                 build/pcm.o
PCM_setPowerStateNonBlocking                      build/pcm.o
PCM_setPowerStateWithTimeout                      build/pcm.o
PCM_shutdownDevice                                build/pcm.o
PCM_unregisterInterrupt                           build/pcm.o
PORT1_IRQHandler                                  build/startup_msp432p401r_gcc.o
PORT2_IRQHandler                                  build/startup_msp432p401r_gcc.o
PORT3_IRQHandler                                  build/startup_msp432p401r_gcc.o
PORT4_IRQHandler                                  build/startup_msp432p401r_gcc.o
PORT5_IRQHandler                                  build/startup_msp432p401r_gcc.o
PORT6_IRQHandler                                  build/startup_msp432p401r_gcc.o
PSS_IRQHandler                                    build/startup_msp432p401r_gcc.o
PSS_clearInterruptFlag                            build/pss.o
PSS_disableForcedDCDCOperation                    build/pss.o
PSS_disableHighSide                               build/pss.o
PSS_disableHighSideMonitor                        build/pss.o
PSS_disableHighSidePinToggle                      build/pss.o
PSS_disableInterrupt                              build/pss.o
PSS_enableForcedDCDCOperation                     build/pss.o
PSS_enableHighSide                                build/pss.o
PSS_enableHighSideMonitor                         build/pss.o
PSS_enableHighSidePinToggle                       build/pss.o
PSS_enableInterrupt                               build/pss.o
PSS_getHighSidePerformanceMode                    build/pss.o
PSS_getHighSideVoltageTrigger                     build/pss.o
PSS_getInterruptStatus                            build/pss.o
PSS_registerInterrupt                             build/pss.o
PSS_setHighSidePerformanceMode                    build/pss.o
PSS_setHighSideVoltageTrigger                     build/pss.o
PSS_unregisterInterrupt                           build/pss.o
PendSV_Handler                                    build/startup_msp432p401r_gcc.o
Peripheral_PreInit                                build/user_periph.o
                                                  build/main.o
Printf                                            build/user_uart.o
                                                  build/user_periph.o
                                                  build/main.o
REF_A_disableReferenceVoltage                     build/ref_a.o
REF_A_disableReferenceVoltageOutput               build/ref_a.o
REF_A_disableTempSensor                           build/ref_a.o
REF_A_enableReferenceVoltage                      build/ref_a.o
REF_A_enableReferenceVoltageOutput                build/ref_a.o
REF_A_enableTempSensor                            build/ref_a.o
REF_A_getBandgapMode                              build/ref_a.o
REF_A_getBufferedBandgapVoltageStatus             build/ref_a.o
REF_A_getVariableReferenceVoltageStatus           build/ref_a.o
REF_A_isBandgapActive                             build/ref_a.o
REF_A_isRefGenActive                              build/ref_a.o
REF_A_isRefGenBusy                                build/ref_a.o
REF_A_setBufferedBandgapVoltageOneTimeTrigger     build/ref_a.o
REF_A_setReferenceVoltage                         build/ref_a.o
REF_A_setReferenceVoltageOneTimeTrigger           build/ref_a.o
RTC_C_IRQHandler                                  build/startup_msp432p401r_gcc.o
RTC_C_clearInterruptFlag                          build/rtc_c.o
RTC_C_convertBCDToBinary                          build/rtc_c.o
RTC_C_convertBinaryToBCD                          build/rtc_c.o
RTC_C_definePrescaleEvent                         build/rtc_c.o
RTC_C_disableInterrupt                            build/rtc_c.o
RTC_C_enableInterrupt                             build/rtc_c.o
RTC_C_getCalendarTime                             build/rtc_c.o
RTC_C_getEnabledInterruptStatus                   build/rtc_c.o
RTC_C_getInterruptStatus                          build/rtc_c.o
RTC_C_getPrescaleValue                            build/rtc_c.o
RTC_C_holdClock                                   build/rtc_c.o
                                                  build/pcm.o
RTC_C_initCalendar                                build/rtc_c.o
RTC_C_registerInterrupt                           build/rtc_c.o
RTC_C_setCalendarAlarm                            build/rtc_c.o
RTC_C_setCalendarEvent                            build/rtc_c.o
RTC_C_setCalibrationData                          build/rtc_c.o
RTC_C_setCalibrationFrequency                     build/rtc_c.o
RTC_C_setPrescaleValue                            build/rtc_c.o
RTC_C_setTemperatureCompensation                  build/rtc_c.o
RTC_C_startClock                                  build/rtc_c.o
RTC_C_unregisterInterrupt                         build/rtc_c.o
Receive                                           build/user_uart.o
ResetCtl_clearHardResetSource                     build/reset.o
ResetCtl_clearPCMFlags                            build/reset.o
ResetCtl_clearPSSFlags                            build/reset.o
ResetCtl_clearSoftResetSource                     build/reset.o
ResetCtl_getHardResetSource                       build/reset.o
ResetCtl_getPCMSource                             build/reset.o
ResetCtl_getPSSSource                             build/reset.o
ResetCtl_getSoftResetSource                       build/reset.o
ResetCtl_initiateHardReset                        build/reset.o
ResetCtl_initiateHardResetWithSource              build/reset.o
ResetCtl_initiateSoftReset                        build/reset.o
ResetCtl_initiateSoftResetWithSource              build/reset.o
Reset_Handler                                     build/startup_msp432p401r_gcc.o
SVC_Handler                                       build/startup_msp432p401r_gcc.o
Send_Nchar                                        build/user_uart.o
Send_String                                       build/user_uart.o
SysCtl_disableGlitchFilter                        build/sysctl.o
SysCtl_disableNMISource                           build/sysctl.o
                                                  build/cs.o
SysCtl_disablePeripheralAtCPUHalt                 build/sysctl.o
SysCtl_disableSRAMBank                            build/sysctl.o
SysCtl_disableSRAMBankRetention                   build/sysctl.o
SysCtl_enableGlitchFilter                         build/sysctl.o
SysCtl_enableNMISource                            build/sysctl.o
                                                  build/cs.o
SysCtl_enablePeripheralAtCPUHalt                  build/sysctl.o
SysCtl_enableSRAMBank                             build/sysctl.o
SysCtl_enableSRAMBankRetention                    build/sysctl.o
SysCtl_getFlashSize                               build/sysctl.o
                                                  build/flash.o
SysCtl_getNMISourceStatus                         build/sysctl.o
                                                  build/cs.o
SysCtl_getSRAMSize                                build/sysctl.o
SysCtl_getTLVInfo                                 build/sysctl.o
                                                  build/flash.o
                                                  build/cs.o
SysCtl_getTempCalibrationConstant                 build/sysctl.o
SysCtl_rebootDevice                               build/sysctl.o
SysCtl_setWDTPasswordViolationResetType           build/sysctl.o
                                                  build/wdt_a.o
SysCtl_setWDTTimeoutResetType                     build/sysctl.o
                                                  build/wdt_a.o
SysTick_Handler                                   build/startup_msp432p401r_gcc.o
SysTick_disableInterrupt                          build/systick.o
SysTick_disableModule                             build/systick.o
SysTick_enableInterrupt                           build/systick.o
SysTick_enableModule                              build/systick.o
SysTick_getPeriod                                 build/systick.o
SysTick_getValue                                  build/systick.o
SysTick_registerInterrupt                         build/systick.o
SysTick_setPeriod                                 build/systick.o
SysTick_unregisterInterrupt                       build/systick.o
SystemCoreClock                                   build/system_msp432p401r.o
SystemCoreClockUpdate                             build/system_msp432p401r.o
SystemInit                                        build/system_msp432p401r.o
                                                  build/startup_msp432p401r_gcc.o
T32_INT1_IRQHandler                               build/startup_msp432p401r_gcc.o
T32_INT2_IRQHandler                               build/startup_msp432p401r_gcc.o
T32_INTC_IRQHandler                               build/startup_msp432p401r_gcc.o
TA0_0_IRQHandler                                  build/startup_msp432p401r_gcc.o
TA0_N_IRQHandler                                  build/startup_msp432p401r_gcc.o
TA1_0_IRQHandler                                  build/startup_msp432p401r_gcc.o
TA1_N_IRQHandler                                  build/startup_msp432p401r_gcc.o
TA2_0_IRQHandler                                  build/startup_msp432p401r_gcc.o
TA2_N_IRQHandler                                  build/startup_msp432p401r_gcc.o
TA3_0_IRQHandler                                  build/startup_msp432p401r_gcc.o
TA3_N_IRQHandler                                  build/startup_msp432p401r_gcc.o
UART_clearInterruptFlag                           build/uart.o
UART_disableInterrupt                             build/uart.o
UART_disableModule                                build/uart.o
UART_enableInterrupt                              build/uart.o
UART_enableModule                                 build/uart.o
UART_getEnabledInterruptStatus                    build/uart.o
UART_getInterruptStatus                           build/uart.o
UART_getReceiveBufferAddressForDMA                build/uart.o
UART_getTransmitBufferAddressForDMA               build/uart.o
UART_initModule                                   build/uart.o
UART_queryStatusFlags                             build/uart.o
UART_receiveData                                  build/uart.o
UART_registerInterrupt                            build/uart.o
UART_resetDormant                                 build/uart.o
UART_selectDeglitchTime                           build/uart.o
UART_setDormant                                   build/uart.o
UART_transmitAddress                              build/uart.o
UART_transmitBreak                                build/uart.o
UART_transmitData                                 build/uart.o
UART_unregisterInterrupt                          build/uart.o
UsageFault_Handler                                build/startup_msp432p401r_gcc.o
WDT_A_IRQHandler                                  build/startup_msp432p401r_gcc.o
WDT_A_clearTimer                                  build/wdt_a.o
WDT_A_holdTimer                                   build/wdt_a.o
                                                  build/pcm.o
WDT_A_initIntervalTimer                           build/wdt_a.o
WDT_A_initWatchdogTimer                           build/wdt_a.o
WDT_A_registerInterrupt                           build/wdt_a.o
WDT_A_setPasswordViolationReset                   build/wdt_a.o
WDT_A_setTimeoutReset                             build/wdt_a.o
WDT_A_startTimer                                  build/wdt_a.o
WDT_A_unregisterInterrupt                         build/wdt_a.o
_Balloc                                           i:/mcu/gnu_tools_for_arm/11.3_rel1/bin/../lib/gcc/arm-none-eabi/11.3.1/thumb/v7e-m+fp/hard\libc.a(libc_a-mprec.o)
                                                  i:/mcu/gnu_tools_for_arm/11.3_rel1/bin/../lib/gcc/arm-none-eabi/11.3.1/thumb/v7e-m+fp/hard\libc.a(libc_a-dtoa.o)
_Bfree                                            i:/mcu/gnu_tools_for_arm/11.3_rel1/bin/../lib/gcc/arm-none-eabi/11.3.1/thumb/v7e-m+fp/hard\libc.a(libc_a-mprec.o)
                                                  i:/mcu/gnu_tools_for_arm/11.3_rel1/bin/../lib/gcc/arm-none-eabi/11.3.1/thumb/v7e-m+fp/hard\libc.a(libc_a-dtoa.o)
_ITM_deregisterTMCloneTable                       i:/mcu/gnu_tools_for_arm/11.3_rel1/bin/../lib/gcc/arm-none-eabi/11.3.1/thumb/v7e-m+fp/hard/crtbegin.o
_ITM_registerTMCloneTable                         i:/mcu/gnu_tools_for_arm/11.3_rel1/bin/../lib/gcc/arm-none-eabi/11.3.1/thumb/v7e-m+fp/hard/crtbegin.o
_PathLocale                                       i:/mcu/gnu_tools_for_arm/11.3_rel1/bin/../lib/gcc/arm-none-eabi/11.3.1/thumb/v7e-m+fp/hard\libc.a(libc_a-locale.o)
__C_locale                                        i:/mcu/gnu_tools_for_arm/11.3_rel1/bin/../lib/gcc/arm-none-eabi/11.3.1/thumb/v7e-m+fp/hard\libc.a(libc_a-locale.o)
__FlashCtl_remaskBurstDataPost                    build/flash.o
__FlashCtl_remaskBurstDataPre                     build/flash.o
__FlashCtl_remaskData32Post                       build/flash.o
__FlashCtl_remaskData32Pre                        build/flash.o
__FlashCtl_remaskData8Post                        build/flash.o
__FlashCtl_remaskData8Pre                         build/flash.o
__StackTop                                        build/startup_msp432p401r_gcc.o
__TMC_END__                                       i:/mcu/gnu_tools_for_arm/11.3_rel1/bin/../lib/gcc/arm-none-eabi/11.3.1/thumb/v7e-m+fp/hard/crtend.o
                                                  i:/mcu/gnu_tools_for_arm/11.3_rel1/bin/../lib/gcc/arm-none-eabi/11.3.1/thumb/v7e-m+fp/hard/crtbegin.o
__adddf3                                          i:/mcu/gnu_tools_for_arm/11.3_rel1/bin/../lib/gcc/arm-none-eabi/11.3.1/thumb/v7e-m+fp/hard\libgcc.a(_arm_addsubdf3.o)
__aeabi_cdcmpeq                                   i:/mcu/gnu_tools_for_arm/11.3_rel1/bin/../lib/gcc/arm-none-eabi/11.3.1/thumb/v7e-m+fp/hard\libgcc.a(_arm_cmpdf2.o)
__aeabi_cdcmple                                   i:/mcu/gnu_tools_for_arm/11.3_rel1/bin/../lib/gcc/arm-none-eabi/11.3.1/thumb/v7e-m+fp/hard\libgcc.a(_arm_cmpdf2.o)
__aeabi_cdrcmple                                  i:/mcu/gnu_tools_for_arm/11.3_rel1/bin/../lib/gcc/arm-none-eabi/11.3.1/thumb/v7e-m+fp/hard\libgcc.a(_arm_cmpdf2.o)
__aeabi_d2iz                                      i:/mcu/gnu_tools_for_arm/11.3_rel1/bin/../lib/gcc/arm-none-eabi/11.3.1/thumb/v7e-m+fp/hard\libgcc.a(_arm_fixdfsi.o)
                                                  i:/mcu/gnu_tools_for_arm/11.3_rel1/bin/../lib/gcc/arm-none-eabi/11.3.1/thumb/v7e-m+fp/hard\libc.a(libc_a-dtoa.o)
                                                  i:/mcu/gnu_tools_for_arm/11.3_rel1/bin/../lib/gcc/arm-none-eabi/11.3.1/thumb/v7e-m+fp/hard\libc.a(libc_a-svfprintf.o)
__aeabi_dadd                                      i:/mcu/gnu_tools_for_arm/11.3_rel1/bin/../lib/gcc/arm-none-eabi/11.3.1/thumb/v7e-m+fp/hard\libgcc.a(_arm_addsubdf3.o)
                                                  i:/mcu/gnu_tools_for_arm/11.3_rel1/bin/../lib/gcc/arm-none-eabi/11.3.1/thumb/v7e-m+fp/hard\libc.a(libc_a-dtoa.o)
__aeabi_dcmpeq                                    i:/mcu/gnu_tools_for_arm/11.3_rel1/bin/../lib/gcc/arm-none-eabi/11.3.1/thumb/v7e-m+fp/hard\libgcc.a(_arm_cmpdf2.o)
                                                  i:/mcu/gnu_tools_for_arm/11.3_rel1/bin/../lib/gcc/arm-none-eabi/11.3.1/thumb/v7e-m+fp/hard\libc.a(libc_a-dtoa.o)
                                                  i:/mcu/gnu_tools_for_arm/11.3_rel1/bin/../lib/gcc/arm-none-eabi/11.3.1/thumb/v7e-m+fp/hard\libc.a(libc_a-svfprintf.o)
__aeabi_dcmpge                                    i:/mcu/gnu_tools_for_arm/11.3_rel1/bin/../lib/gcc/arm-none-eabi/11.3.1/thumb/v7e-m+fp/hard\libgcc.a(_arm_cmpdf2.o)
__aeabi_dcmpgt                                    i:/mcu/gnu_tools_for_arm/11.3_rel1/bin/../lib/gcc/arm-none-eabi/11.3.1/thumb/v7e-m+fp/hard\libgcc.a(_arm_cmpdf2.o)
                                                  i:/mcu/gnu_tools_for_arm/11.3_rel1/bin/../lib/gcc/arm-none-eabi/11.3.1/thumb/v7e-m+fp/hard\libc.a(libc_a-dtoa.o)
                                                  i:/mcu/gnu_tools_for_arm/11.3_rel1/bin/../lib/gcc/arm-none-eabi/11.3.1/thumb/v7e-m+fp/hard\libc.a(libc_a-svfprintf.o)
__aeabi_dcmple                                    i:/mcu/gnu_tools_for_arm/11.3_rel1/bin/../lib/gcc/arm-none-eabi/11.3.1/thumb/v7e-m+fp/hard\libgcc.a(_arm_cmpdf2.o)
                                                  i:/mcu/gnu_tools_for_arm/11.3_rel1/bin/../lib/gcc/arm-none-eabi/11.3.1/thumb/v7e-m+fp/hard\libc.a(libc_a-dtoa.o)
                                                  i:/mcu/gnu_tools_for_arm/11.3_rel1/bin/../lib/gcc/arm-none-eabi/11.3.1/thumb/v7e-m+fp/hard\libc.a(libc_a-svfprintf.o)
__aeabi_dcmplt                                    i:/mcu/gnu_tools_for_arm/11.3_rel1/bin/../lib/gcc/arm-none-eabi/11.3.1/thumb/v7e-m+fp/hard\libgcc.a(_arm_cmpdf2.o)
                                                  i:/mcu/gnu_tools_for_arm/11.3_rel1/bin/../lib/gcc/arm-none-eabi/11.3.1/thumb/v7e-m+fp/hard\libc.a(libc_a-dtoa.o)
                                                  i:/mcu/gnu_tools_for_arm/11.3_rel1/bin/../lib/gcc/arm-none-eabi/11.3.1/thumb/v7e-m+fp/hard\libc.a(libc_a-svfprintf.o)
__aeabi_dcmpun                                    i:/mcu/gnu_tools_for_arm/11.3_rel1/bin/../lib/gcc/arm-none-eabi/11.3.1/thumb/v7e-m+fp/hard\libgcc.a(_arm_unorddf2.o)
                                                  i:/mcu/gnu_tools_for_arm/11.3_rel1/bin/../lib/gcc/arm-none-eabi/11.3.1/thumb/v7e-m+fp/hard\libc.a(libc_a-svfprintf.o)
__aeabi_ddiv                                      i:/mcu/gnu_tools_for_arm/11.3_rel1/bin/../lib/gcc/arm-none-eabi/11.3.1/thumb/v7e-m+fp/hard\libgcc.a(_arm_muldivdf3.o)
                                                  i:/mcu/gnu_tools_for_arm/11.3_rel1/bin/../lib/gcc/arm-none-eabi/11.3.1/thumb/v7e-m+fp/hard\libc.a(libc_a-mprec.o)
                                                  i:/mcu/gnu_tools_for_arm/11.3_rel1/bin/../lib/gcc/arm-none-eabi/11.3.1/thumb/v7e-m+fp/hard\libc.a(libc_a-dtoa.o)
__aeabi_dmul                                      i:/mcu/gnu_tools_for_arm/11.3_rel1/bin/../lib/gcc/arm-none-eabi/11.3.1/thumb/v7e-m+fp/hard\libgcc.a(_arm_muldivdf3.o)
                                                  i:/mcu/gnu_tools_for_arm/11.3_rel1/bin/../lib/gcc/arm-none-eabi/11.3.1/thumb/v7e-m+fp/hard\libgcc.a(_arm_muldf3.o)
                                                  i:/mcu/gnu_tools_for_arm/11.3_rel1/bin/../lib/gcc/arm-none-eabi/11.3.1/thumb/v7e-m+fp/hard\libc.a(libc_a-mprec.o)
                                                  i:/mcu/gnu_tools_for_arm/11.3_rel1/bin/../lib/gcc/arm-none-eabi/11.3.1/thumb/v7e-m+fp/hard\libc.a(libc_a-dtoa.o)
                                                  i:/mcu/gnu_tools_for_arm/11.3_rel1/bin/../lib/gcc/arm-none-eabi/11.3.1/thumb/v7e-m+fp/hard\libc.a(libm_a-s_frexp.o)
                                                  i:/mcu/gnu_tools_for_arm/11.3_rel1/bin/../lib/gcc/arm-none-eabi/11.3.1/thumb/v7e-m+fp/hard\libc.a(libc_a-svfprintf.o)
__aeabi_drsub                                     i:/mcu/gnu_tools_for_arm/11.3_rel1/bin/../lib/gcc/arm-none-eabi/11.3.1/thumb/v7e-m+fp/hard\libgcc.a(_arm_addsubdf3.o)
__aeabi_dsub                                      i:/mcu/gnu_tools_for_arm/11.3_rel1/bin/../lib/gcc/arm-none-eabi/11.3.1/thumb/v7e-m+fp/hard\libgcc.a(_arm_addsubdf3.o)
                                                  i:/mcu/gnu_tools_for_arm/11.3_rel1/bin/../lib/gcc/arm-none-eabi/11.3.1/thumb/v7e-m+fp/hard\libc.a(libc_a-dtoa.o)
                                                  i:/mcu/gnu_tools_for_arm/11.3_rel1/bin/../lib/gcc/arm-none-eabi/11.3.1/thumb/v7e-m+fp/hard\libc.a(libc_a-svfprintf.o)
__aeabi_f2d                                       i:/mcu/gnu_tools_for_arm/11.3_rel1/bin/../lib/gcc/arm-none-eabi/11.3.1/thumb/v7e-m+fp/hard\libgcc.a(_arm_addsubdf3.o)
__aeabi_i2d                                       i:/mcu/gnu_tools_for_arm/11.3_rel1/bin/../lib/gcc/arm-none-eabi/11.3.1/thumb/v7e-m+fp/hard\libgcc.a(_arm_addsubdf3.o)
                                                  i:/mcu/gnu_tools_for_arm/11.3_rel1/bin/../lib/gcc/arm-none-eabi/11.3.1/thumb/v7e-m+fp/hard\libc.a(libc_a-dtoa.o)
                                                  i:/mcu/gnu_tools_for_arm/11.3_rel1/bin/../lib/gcc/arm-none-eabi/11.3.1/thumb/v7e-m+fp/hard\libc.a(libc_a-svfprintf.o)
__aeabi_l2d                                       i:/mcu/gnu_tools_for_arm/11.3_rel1/bin/../lib/gcc/arm-none-eabi/11.3.1/thumb/v7e-m+fp/hard\libgcc.a(_arm_addsubdf3.o)
__aeabi_ui2d                                      i:/mcu/gnu_tools_for_arm/11.3_rel1/bin/../lib/gcc/arm-none-eabi/11.3.1/thumb/v7e-m+fp/hard\libgcc.a(_arm_addsubdf3.o)
                                                  i:/mcu/gnu_tools_for_arm/11.3_rel1/bin/../lib/gcc/arm-none-eabi/11.3.1/thumb/v7e-m+fp/hard\libc.a(libc_a-dtoa.o)
__aeabi_ul2d                                      i:/mcu/gnu_tools_for_arm/11.3_rel1/bin/../lib/gcc/arm-none-eabi/11.3.1/thumb/v7e-m+fp/hard\libgcc.a(_arm_addsubdf3.o)
__any_on                                          i:/mcu/gnu_tools_for_arm/11.3_rel1/bin/../lib/gcc/arm-none-eabi/11.3.1/thumb/v7e-m+fp/hard\libc.a(libc_a-mprec.o)
__ascii_mbtowc                                    i:/mcu/gnu_tools_for_arm/11.3_rel1/bin/../lib/gcc/arm-none-eabi/11.3.1/thumb/v7e-m+fp/hard\libc.a(libc_a-mbtowc_r.o)
                                                  i:/mcu/gnu_tools_for_arm/11.3_rel1/bin/../lib/gcc/arm-none-eabi/11.3.1/thumb/v7e-m+fp/hard\libc.a(libc_a-locale.o)
__ascii_wctomb                                    i:/mcu/gnu_tools_for_arm/11.3_rel1/bin/../lib/gcc/arm-none-eabi/11.3.1/thumb/v7e-m+fp/hard\libc.a(libc_a-wctomb_r.o)
                                                  i:/mcu/gnu_tools_for_arm/11.3_rel1/bin/../lib/gcc/arm-none-eabi/11.3.1/thumb/v7e-m+fp/hard\libc.a(libc_a-locale.o)
__assert                                          i:/mcu/gnu_tools_for_arm/11.3_rel1/bin/../lib/gcc/arm-none-eabi/11.3.1/thumb/v7e-m+fp/hard\libc.a(libc_a-assert.o)
__assert_func                                     i:/mcu/gnu_tools_for_arm/11.3_rel1/bin/../lib/gcc/arm-none-eabi/11.3.1/thumb/v7e-m+fp/hard\libc.a(libc_a-assert.o)
                                                  i:/mcu/gnu_tools_for_arm/11.3_rel1/bin/../lib/gcc/arm-none-eabi/11.3.1/thumb/v7e-m+fp/hard\libc.a(libc_a-mprec.o)
                                                  i:/mcu/gnu_tools_for_arm/11.3_rel1/bin/../lib/gcc/arm-none-eabi/11.3.1/thumb/v7e-m+fp/hard\libc.a(libc_a-dtoa.o)
__atexit                                          i:/mcu/gnu_tools_for_arm/11.3_rel1/bin/../lib/gcc/arm-none-eabi/11.3.1/thumb/v7e-m+fp/hard\libc.a(libc_a-__call_atexit.o)
                                                  i:/mcu/gnu_tools_for_arm/11.3_rel1/bin/../lib/gcc/arm-none-eabi/11.3.1/thumb/v7e-m+fp/hard\libc.a(libc_a-__atexit.o)
__atexit0                                         i:/mcu/gnu_tools_for_arm/11.3_rel1/bin/../lib/gcc/arm-none-eabi/11.3.1/thumb/v7e-m+fp/hard\libc.a(libc_a-__atexit.o)
__atexit_recursive_mutex                          i:/mcu/gnu_tools_for_arm/11.3_rel1/bin/../lib/gcc/arm-none-eabi/11.3.1/thumb/v7e-m+fp/hard\libc.a(libc_a-__call_atexit.o)
                                                  i:/mcu/gnu_tools_for_arm/11.3_rel1/bin/../lib/gcc/arm-none-eabi/11.3.1/thumb/v7e-m+fp/hard\libc.a(libc_a-__atexit.o)
__b2d                                             i:/mcu/gnu_tools_for_arm/11.3_rel1/bin/../lib/gcc/arm-none-eabi/11.3.1/thumb/v7e-m+fp/hard\libc.a(libc_a-mprec.o)
__bss_end__                                       i:/mcu/gnu_tools_for_arm/11.3_rel1/bin/../lib/gcc/arm-none-eabi/11.3.1/thumb/v7e-m+fp/hard/crt0.o
__bss_start__                                     i:/mcu/gnu_tools_for_arm/11.3_rel1/bin/../lib/gcc/arm-none-eabi/11.3.1/thumb/v7e-m+fp/hard/crt0.o
__call_exitprocs                                  i:/mcu/gnu_tools_for_arm/11.3_rel1/bin/../lib/gcc/arm-none-eabi/11.3.1/thumb/v7e-m+fp/hard\libc.a(libc_a-__call_atexit.o)
                                                  i:/mcu/gnu_tools_for_arm/11.3_rel1/bin/../lib/gcc/arm-none-eabi/11.3.1/thumb/v7e-m+fp/hard\libc.a(libc_a-exit.o)
__cmpdf2                                          i:/mcu/gnu_tools_for_arm/11.3_rel1/bin/../lib/gcc/arm-none-eabi/11.3.1/thumb/v7e-m+fp/hard\libgcc.a(_arm_cmpdf2.o)
__copybits                                        i:/mcu/gnu_tools_for_arm/11.3_rel1/bin/../lib/gcc/arm-none-eabi/11.3.1/thumb/v7e-m+fp/hard\libc.a(libc_a-mprec.o)
__d2b                                             i:/mcu/gnu_tools_for_arm/11.3_rel1/bin/../lib/gcc/arm-none-eabi/11.3.1/thumb/v7e-m+fp/hard\libc.a(libc_a-mprec.o)
                                                  i:/mcu/gnu_tools_for_arm/11.3_rel1/bin/../lib/gcc/arm-none-eabi/11.3.1/thumb/v7e-m+fp/hard\libc.a(libc_a-dtoa.o)
__data_end__                                      build/startup_msp432p401r_gcc.o
__data_load__                                     build/startup_msp432p401r_gcc.o
__data_start__                                    build/startup_msp432p401r_gcc.o
__default_locale                                  i:/mcu/gnu_tools_for_arm/11.3_rel1/bin/../lib/gcc/arm-none-eabi/11.3.1/thumb/v7e-m+fp/hard\libc.a(libc_a-locale.o)
__deregister_frame_info                           i:/mcu/gnu_tools_for_arm/11.3_rel1/bin/../lib/gcc/arm-none-eabi/11.3.1/thumb/v7e-m+fp/hard/crtbegin.o
__divdf3                                          i:/mcu/gnu_tools_for_arm/11.3_rel1/bin/../lib/gcc/arm-none-eabi/11.3.1/thumb/v7e-m+fp/hard\libgcc.a(_arm_muldivdf3.o)
__dso_handle                                      i:/mcu/gnu_tools_for_arm/11.3_rel1/bin/../lib/gcc/arm-none-eabi/11.3.1/thumb/v7e-m+fp/hard/crtbegin.o
__env                                             build/syscalls.o
__env_lock                                        i:/mcu/gnu_tools_for_arm/11.3_rel1/bin/../lib/gcc/arm-none-eabi/11.3.1/thumb/v7e-m+fp/hard\libc.a(libc_a-envlock.o)
                                                  i:/mcu/gnu_tools_for_arm/11.3_rel1/bin/../lib/gcc/arm-none-eabi/11.3.1/thumb/v7e-m+fp/hard\libc.a(libc_a-getenv_r.o)
__env_unlock                                      i:/mcu/gnu_tools_for_arm/11.3_rel1/bin/../lib/gcc/arm-none-eabi/11.3.1/thumb/v7e-m+fp/hard\libc.a(libc_a-envlock.o)
                                                  i:/mcu/gnu_tools_for_arm/11.3_rel1/bin/../lib/gcc/arm-none-eabi/11.3.1/thumb/v7e-m+fp/hard\libc.a(libc_a-getenv_r.o)
__eqdf2                                           i:/mcu/gnu_tools_for_arm/11.3_rel1/bin/../lib/gcc/arm-none-eabi/11.3.1/thumb/v7e-m+fp/hard\libgcc.a(_arm_cmpdf2.o)
__errno                                           i:/mcu/gnu_tools_for_arm/11.3_rel1/bin/../lib/gcc/arm-none-eabi/11.3.1/thumb/v7e-m+fp/hard\libc.a(libc_a-errno.o)
                                                  i:/mcu/gnu_tools_for_arm/11.3_rel1/bin/../lib/gcc/arm-none-eabi/11.3.1/thumb/v7e-m+fp/hard\libc.a(libc_a-callocr.o)
                                                  i:/mcu/gnu_tools_for_arm/11.3_rel1/bin/../lib/gcc/arm-none-eabi/11.3.1/thumb/v7e-m+fp/hard\libc.a(libc_a-strtol.o)
                                                  build/syscalls.o
__eucjp_mbtowc                                    i:/mcu/gnu_tools_for_arm/11.3_rel1/bin/../lib/gcc/arm-none-eabi/11.3.1/thumb/v7e-m+fp/hard\libc.a(libc_a-mbtowc_r.o)
                                                  i:/mcu/gnu_tools_for_arm/11.3_rel1/bin/../lib/gcc/arm-none-eabi/11.3.1/thumb/v7e-m+fp/hard\libc.a(libc_a-locale.o)
__eucjp_wctomb                                    i:/mcu/gnu_tools_for_arm/11.3_rel1/bin/../lib/gcc/arm-none-eabi/11.3.1/thumb/v7e-m+fp/hard\libc.a(libc_a-wctomb_r.o)
                                                  i:/mcu/gnu_tools_for_arm/11.3_rel1/bin/../lib/gcc/arm-none-eabi/11.3.1/thumb/v7e-m+fp/hard\libc.a(libc_a-locale.o)
__extendsfdf2                                     i:/mcu/gnu_tools_for_arm/11.3_rel1/bin/../lib/gcc/arm-none-eabi/11.3.1/thumb/v7e-m+fp/hard\libgcc.a(_arm_addsubdf3.o)
__fini_array_end                                  i:/mcu/gnu_tools_for_arm/11.3_rel1/bin/../lib/gcc/arm-none-eabi/11.3.1/thumb/v7e-m+fp/hard\libc.a(libc_a-fini.o)
__fini_array_start                                i:/mcu/gnu_tools_for_arm/11.3_rel1/bin/../lib/gcc/arm-none-eabi/11.3.1/thumb/v7e-m+fp/hard\libc.a(libc_a-fini.o)
__fixdfsi                                         i:/mcu/gnu_tools_for_arm/11.3_rel1/bin/../lib/gcc/arm-none-eabi/11.3.1/thumb/v7e-m+fp/hard\libgcc.a(_arm_fixdfsi.o)
__floatdidf                                       i:/mcu/gnu_tools_for_arm/11.3_rel1/bin/../lib/gcc/arm-none-eabi/11.3.1/thumb/v7e-m+fp/hard\libgcc.a(_arm_addsubdf3.o)
__floatsidf                                       i:/mcu/gnu_tools_for_arm/11.3_rel1/bin/../lib/gcc/arm-none-eabi/11.3.1/thumb/v7e-m+fp/hard\libgcc.a(_arm_addsubdf3.o)
__floatundidf                                     i:/mcu/gnu_tools_for_arm/11.3_rel1/bin/../lib/gcc/arm-none-eabi/11.3.1/thumb/v7e-m+fp/hard\libgcc.a(_arm_addsubdf3.o)
__floatunsidf                                     i:/mcu/gnu_tools_for_arm/11.3_rel1/bin/../lib/gcc/arm-none-eabi/11.3.1/thumb/v7e-m+fp/hard\libgcc.a(_arm_addsubdf3.o)
__fp_lock_all                                     i:/mcu/gnu_tools_for_arm/11.3_rel1/bin/../lib/gcc/arm-none-eabi/11.3.1/thumb/v7e-m+fp/hard\libc.a(libc_a-findfp.o)
__fp_unlock_all                                   i:/mcu/gnu_tools_for_arm/11.3_rel1/bin/../lib/gcc/arm-none-eabi/11.3.1/thumb/v7e-m+fp/hard\libc.a(libc_a-findfp.o)
__fputwc                                          i:/mcu/gnu_tools_for_arm/11.3_rel1/bin/../lib/gcc/arm-none-eabi/11.3.1/thumb/v7e-m+fp/hard\libc.a(libc_a-fputwc.o)
__gedf2                                           i:/mcu/gnu_tools_for_arm/11.3_rel1/bin/../lib/gcc/arm-none-eabi/11.3.1/thumb/v7e-m+fp/hard\libgcc.a(_arm_cmpdf2.o)
__get_locale_env                                  i:/mcu/gnu_tools_for_arm/11.3_rel1/bin/../lib/gcc/arm-none-eabi/11.3.1/thumb/v7e-m+fp/hard\libc.a(libc_a-locale.o)
__global_locale                                   i:/mcu/gnu_tools_for_arm/11.3_rel1/bin/../lib/gcc/arm-none-eabi/11.3.1/thumb/v7e-m+fp/hard\libc.a(libc_a-locale.o)
                                                  i:/mcu/gnu_tools_for_arm/11.3_rel1/bin/../lib/gcc/arm-none-eabi/11.3.1/thumb/v7e-m+fp/hard\libc.a(libc_a-vfiprintf.o)
                                                  i:/mcu/gnu_tools_for_arm/11.3_rel1/bin/../lib/gcc/arm-none-eabi/11.3.1/thumb/v7e-m+fp/hard\libc.a(libc_a-wcsnrtombs.o)
                                                  i:/mcu/gnu_tools_for_arm/11.3_rel1/bin/../lib/gcc/arm-none-eabi/11.3.1/thumb/v7e-m+fp/hard\libc.a(libc_a-svfiprintf.o)
                                                  i:/mcu/gnu_tools_for_arm/11.3_rel1/bin/../lib/gcc/arm-none-eabi/11.3.1/thumb/v7e-m+fp/hard\libc.a(libc_a-wcrtomb.o)
                                                  i:/mcu/gnu_tools_for_arm/11.3_rel1/bin/../lib/gcc/arm-none-eabi/11.3.1/thumb/v7e-m+fp/hard\libc.a(libc_a-wctomb_r.o)
                                                  i:/mcu/gnu_tools_for_arm/11.3_rel1/bin/../lib/gcc/arm-none-eabi/11.3.1/thumb/v7e-m+fp/hard\libc.a(libc_a-mbtowc_r.o)
                                                  i:/mcu/gnu_tools_for_arm/11.3_rel1/bin/../lib/gcc/arm-none-eabi/11.3.1/thumb/v7e-m+fp/hard\libc.a(libc_a-localeconv.o)
                                                  i:/mcu/gnu_tools_for_arm/11.3_rel1/bin/../lib/gcc/arm-none-eabi/11.3.1/thumb/v7e-m+fp/hard\libc.a(libc_a-svfprintf.o)
__gtdf2                                           i:/mcu/gnu_tools_for_arm/11.3_rel1/bin/../lib/gcc/arm-none-eabi/11.3.1/thumb/v7e-m+fp/hard\libgcc.a(_arm_cmpdf2.o)
__hi0bits                                         i:/mcu/gnu_tools_for_arm/11.3_rel1/bin/../lib/gcc/arm-none-eabi/11.3.1/thumb/v7e-m+fp/hard\libc.a(libc_a-mprec.o)
                                                  i:/mcu/gnu_tools_for_arm/11.3_rel1/bin/../lib/gcc/arm-none-eabi/11.3.1/thumb/v7e-m+fp/hard\libc.a(libc_a-dtoa.o)
__i2b                                             i:/mcu/gnu_tools_for_arm/11.3_rel1/bin/../lib/gcc/arm-none-eabi/11.3.1/thumb/v7e-m+fp/hard\libc.a(libc_a-mprec.o)
                                                  i:/mcu/gnu_tools_for_arm/11.3_rel1/bin/../lib/gcc/arm-none-eabi/11.3.1/thumb/v7e-m+fp/hard\libc.a(libc_a-dtoa.o)
__init_array_end                                  i:/mcu/gnu_tools_for_arm/11.3_rel1/bin/../lib/gcc/arm-none-eabi/11.3.1/thumb/v7e-m+fp/hard\libc.a(libc_a-init.o)
__init_array_start                                i:/mcu/gnu_tools_for_arm/11.3_rel1/bin/../lib/gcc/arm-none-eabi/11.3.1/thumb/v7e-m+fp/hard\libc.a(libc_a-init.o)
__io_getchar                                      build/syscalls.o
__io_putchar                                      build/syscalls.o
__jis_mbtowc                                      i:/mcu/gnu_tools_for_arm/11.3_rel1/bin/../lib/gcc/arm-none-eabi/11.3.1/thumb/v7e-m+fp/hard\libc.a(libc_a-mbtowc_r.o)
                                                  i:/mcu/gnu_tools_for_arm/11.3_rel1/bin/../lib/gcc/arm-none-eabi/11.3.1/thumb/v7e-m+fp/hard\libc.a(libc_a-locale.o)
__jis_wctomb                                      i:/mcu/gnu_tools_for_arm/11.3_rel1/bin/../lib/gcc/arm-none-eabi/11.3.1/thumb/v7e-m+fp/hard\libc.a(libc_a-wctomb_r.o)
                                                  i:/mcu/gnu_tools_for_arm/11.3_rel1/bin/../lib/gcc/arm-none-eabi/11.3.1/thumb/v7e-m+fp/hard\libc.a(libc_a-locale.o)
__ledf2                                           i:/mcu/gnu_tools_for_arm/11.3_rel1/bin/../lib/gcc/arm-none-eabi/11.3.1/thumb/v7e-m+fp/hard\libgcc.a(_arm_cmpdf2.o)
__libc_fini                                       i:/mcu/gnu_tools_for_arm/11.3_rel1/bin/../lib/gcc/arm-none-eabi/11.3.1/thumb/v7e-m+fp/hard\libc.a(libc_a-__call_atexit.o)
__libc_fini_array                                 i:/mcu/gnu_tools_for_arm/11.3_rel1/bin/../lib/gcc/arm-none-eabi/11.3.1/thumb/v7e-m+fp/hard\libc.a(libc_a-fini.o)
                                                  i:/mcu/gnu_tools_for_arm/11.3_rel1/bin/../lib/gcc/arm-none-eabi/11.3.1/thumb/v7e-m+fp/hard\libc.a(libc_a-__call_atexit.o)
                                                  i:/mcu/gnu_tools_for_arm/11.3_rel1/bin/../lib/gcc/arm-none-eabi/11.3.1/thumb/v7e-m+fp/hard/crt0.o
__libc_init_array                                 i:/mcu/gnu_tools_for_arm/11.3_rel1/bin/../lib/gcc/arm-none-eabi/11.3.1/thumb/v7e-m+fp/hard\libc.a(libc_a-init.o)
                                                  i:/mcu/gnu_tools_for_arm/11.3_rel1/bin/../lib/gcc/arm-none-eabi/11.3.1/thumb/v7e-m+fp/hard/crt0.o
__lo0bits                                         i:/mcu/gnu_tools_for_arm/11.3_rel1/bin/../lib/gcc/arm-none-eabi/11.3.1/thumb/v7e-m+fp/hard\libc.a(libc_a-mprec.o)
__loadlocale                                      i:/mcu/gnu_tools_for_arm/11.3_rel1/bin/../lib/gcc/arm-none-eabi/11.3.1/thumb/v7e-m+fp/hard\libc.a(libc_a-locale.o)
__locale_mb_cur_max                               i:/mcu/gnu_tools_for_arm/11.3_rel1/bin/../lib/gcc/arm-none-eabi/11.3.1/thumb/v7e-m+fp/hard\libc.a(libc_a-locale.o)
                                                  i:/mcu/gnu_tools_for_arm/11.3_rel1/bin/../lib/gcc/arm-none-eabi/11.3.1/thumb/v7e-m+fp/hard\libc.a(libc_a-fputwc.o)
                                                  i:/mcu/gnu_tools_for_arm/11.3_rel1/bin/../lib/gcc/arm-none-eabi/11.3.1/thumb/v7e-m+fp/hard\libc.a(libc_a-vfiprintf.o)
                                                  i:/mcu/gnu_tools_for_arm/11.3_rel1/bin/../lib/gcc/arm-none-eabi/11.3.1/thumb/v7e-m+fp/hard\libc.a(libc_a-svfiprintf.o)
                                                  i:/mcu/gnu_tools_for_arm/11.3_rel1/bin/../lib/gcc/arm-none-eabi/11.3.1/thumb/v7e-m+fp/hard\libc.a(libc_a-svfprintf.o)
__localeconv_l                                    i:/mcu/gnu_tools_for_arm/11.3_rel1/bin/../lib/gcc/arm-none-eabi/11.3.1/thumb/v7e-m+fp/hard\libc.a(libc_a-localeconv.o)
__lock___arc4random_mutex                         i:/mcu/gnu_tools_for_arm/11.3_rel1/bin/../lib/gcc/arm-none-eabi/11.3.1/thumb/v7e-m+fp/hard\libc.a(libc_a-lock.o)
__lock___at_quick_exit_mutex                      i:/mcu/gnu_tools_for_arm/11.3_rel1/bin/../lib/gcc/arm-none-eabi/11.3.1/thumb/v7e-m+fp/hard\libc.a(libc_a-lock.o)
__lock___atexit_recursive_mutex                   i:/mcu/gnu_tools_for_arm/11.3_rel1/bin/../lib/gcc/arm-none-eabi/11.3.1/thumb/v7e-m+fp/hard\libc.a(libc_a-lock.o)
                                                  i:/mcu/gnu_tools_for_arm/11.3_rel1/bin/../lib/gcc/arm-none-eabi/11.3.1/thumb/v7e-m+fp/hard\libc.a(libc_a-__call_atexit.o)
__lock___dd_hash_mutex                            i:/mcu/gnu_tools_for_arm/11.3_rel1/bin/../lib/gcc/arm-none-eabi/11.3.1/thumb/v7e-m+fp/hard\libc.a(libc_a-lock.o)
__lock___env_recursive_mutex                      i:/mcu/gnu_tools_for_arm/11.3_rel1/bin/../lib/gcc/arm-none-eabi/11.3.1/thumb/v7e-m+fp/hard\libc.a(libc_a-lock.o)
                                                  i:/mcu/gnu_tools_for_arm/11.3_rel1/bin/../lib/gcc/arm-none-eabi/11.3.1/thumb/v7e-m+fp/hard\libc.a(libc_a-envlock.o)
__lock___malloc_recursive_mutex                   i:/mcu/gnu_tools_for_arm/11.3_rel1/bin/../lib/gcc/arm-none-eabi/11.3.1/thumb/v7e-m+fp/hard\libc.a(libc_a-lock.o)
                                                  i:/mcu/gnu_tools_for_arm/11.3_rel1/bin/../lib/gcc/arm-none-eabi/11.3.1/thumb/v7e-m+fp/hard\libc.a(libc_a-mlock.o)
__lock___sfp_recursive_mutex                      i:/mcu/gnu_tools_for_arm/11.3_rel1/bin/../lib/gcc/arm-none-eabi/11.3.1/thumb/v7e-m+fp/hard\libc.a(libc_a-lock.o)
                                                  i:/mcu/gnu_tools_for_arm/11.3_rel1/bin/../lib/gcc/arm-none-eabi/11.3.1/thumb/v7e-m+fp/hard\libc.a(libc_a-findfp.o)
__lock___tz_mutex                                 i:/mcu/gnu_tools_for_arm/11.3_rel1/bin/../lib/gcc/arm-none-eabi/11.3.1/thumb/v7e-m+fp/hard\libc.a(libc_a-lock.o)
__lshift                                          i:/mcu/gnu_tools_for_arm/11.3_rel1/bin/../lib/gcc/arm-none-eabi/11.3.1/thumb/v7e-m+fp/hard\libc.a(libc_a-mprec.o)
                                                  i:/mcu/gnu_tools_for_arm/11.3_rel1/bin/../lib/gcc/arm-none-eabi/11.3.1/thumb/v7e-m+fp/hard\libc.a(libc_a-dtoa.o)
__ltdf2                                           i:/mcu/gnu_tools_for_arm/11.3_rel1/bin/../lib/gcc/arm-none-eabi/11.3.1/thumb/v7e-m+fp/hard\libgcc.a(_arm_cmpdf2.o)
__malloc_av_                                      i:/mcu/gnu_tools_for_arm/11.3_rel1/bin/../lib/gcc/arm-none-eabi/11.3.1/thumb/v7e-m+fp/hard\libc.a(libc_a-mallocr.o)
                                                  i:/mcu/gnu_tools_for_arm/11.3_rel1/bin/../lib/gcc/arm-none-eabi/11.3.1/thumb/v7e-m+fp/hard\libc.a(libc_a-reallocr.o)
                                                  i:/mcu/gnu_tools_for_arm/11.3_rel1/bin/../lib/gcc/arm-none-eabi/11.3.1/thumb/v7e-m+fp/hard\libc.a(libc_a-freer.o)
__malloc_current_mallinfo                         i:/mcu/gnu_tools_for_arm/11.3_rel1/bin/../lib/gcc/arm-none-eabi/11.3.1/thumb/v7e-m+fp/hard\libc.a(libc_a-mallocr.o)
                                                  i:/mcu/gnu_tools_for_arm/11.3_rel1/bin/../lib/gcc/arm-none-eabi/11.3.1/thumb/v7e-m+fp/hard\libc.a(libc_a-freer.o)
__malloc_lock                                     i:/mcu/gnu_tools_for_arm/11.3_rel1/bin/../lib/gcc/arm-none-eabi/11.3.1/thumb/v7e-m+fp/hard\libc.a(libc_a-mlock.o)
                                                  i:/mcu/gnu_tools_for_arm/11.3_rel1/bin/../lib/gcc/arm-none-eabi/11.3.1/thumb/v7e-m+fp/hard\libc.a(libc_a-reallocr.o)
                                                  i:/mcu/gnu_tools_for_arm/11.3_rel1/bin/../lib/gcc/arm-none-eabi/11.3.1/thumb/v7e-m+fp/hard\libc.a(libc_a-mallocr.o)
                                                  i:/mcu/gnu_tools_for_arm/11.3_rel1/bin/../lib/gcc/arm-none-eabi/11.3.1/thumb/v7e-m+fp/hard\libc.a(libc_a-freer.o)
__malloc_max_sbrked_mem                           i:/mcu/gnu_tools_for_arm/11.3_rel1/bin/../lib/gcc/arm-none-eabi/11.3.1/thumb/v7e-m+fp/hard\libc.a(libc_a-mallocr.o)
__malloc_max_total_mem                            i:/mcu/gnu_tools_for_arm/11.3_rel1/bin/../lib/gcc/arm-none-eabi/11.3.1/thumb/v7e-m+fp/hard\libc.a(libc_a-mallocr.o)
__malloc_sbrk_base                                i:/mcu/gnu_tools_for_arm/11.3_rel1/bin/../lib/gcc/arm-none-eabi/11.3.1/thumb/v7e-m+fp/hard\libc.a(libc_a-mallocr.o)
                                                  i:/mcu/gnu_tools_for_arm/11.3_rel1/bin/../lib/gcc/arm-none-eabi/11.3.1/thumb/v7e-m+fp/hard\libc.a(libc_a-freer.o)
__malloc_top_pad                                  i:/mcu/gnu_tools_for_arm/11.3_rel1/bin/../lib/gcc/arm-none-eabi/11.3.1/thumb/v7e-m+fp/hard\libc.a(libc_a-mallocr.o)
                                                  i:/mcu/gnu_tools_for_arm/11.3_rel1/bin/../lib/gcc/arm-none-eabi/11.3.1/thumb/v7e-m+fp/hard\libc.a(libc_a-freer.o)
__malloc_trim_threshold                           i:/mcu/gnu_tools_for_arm/11.3_rel1/bin/../lib/gcc/arm-none-eabi/11.3.1/thumb/v7e-m+fp/hard\libc.a(libc_a-mallocr.o)
                                                  i:/mcu/gnu_tools_for_arm/11.3_rel1/bin/../lib/gcc/arm-none-eabi/11.3.1/thumb/v7e-m+fp/hard\libc.a(libc_a-freer.o)
__malloc_unlock                                   i:/mcu/gnu_tools_for_arm/11.3_rel1/bin/../lib/gcc/arm-none-eabi/11.3.1/thumb/v7e-m+fp/hard\libc.a(libc_a-mlock.o)
                                                  i:/mcu/gnu_tools_for_arm/11.3_rel1/bin/../lib/gcc/arm-none-eabi/11.3.1/thumb/v7e-m+fp/hard\libc.a(libc_a-reallocr.o)
                                                  i:/mcu/gnu_tools_for_arm/11.3_rel1/bin/../lib/gcc/arm-none-eabi/11.3.1/thumb/v7e-m+fp/hard\libc.a(libc_a-mallocr.o)
                                                  i:/mcu/gnu_tools_for_arm/11.3_rel1/bin/../lib/gcc/arm-none-eabi/11.3.1/thumb/v7e-m+fp/hard\libc.a(libc_a-freer.o)
__mcmp                                            i:/mcu/gnu_tools_for_arm/11.3_rel1/bin/../lib/gcc/arm-none-eabi/11.3.1/thumb/v7e-m+fp/hard\libc.a(libc_a-mprec.o)
                                                  i:/mcu/gnu_tools_for_arm/11.3_rel1/bin/../lib/gcc/arm-none-eabi/11.3.1/thumb/v7e-m+fp/hard\libc.a(libc_a-dtoa.o)
__mdiff                                           i:/mcu/gnu_tools_for_arm/11.3_rel1/bin/../lib/gcc/arm-none-eabi/11.3.1/thumb/v7e-m+fp/hard\libc.a(libc_a-mprec.o)
                                                  i:/mcu/gnu_tools_for_arm/11.3_rel1/bin/../lib/gcc/arm-none-eabi/11.3.1/thumb/v7e-m+fp/hard\libc.a(libc_a-dtoa.o)
__mprec_bigtens                                   i:/mcu/gnu_tools_for_arm/11.3_rel1/bin/../lib/gcc/arm-none-eabi/11.3.1/thumb/v7e-m+fp/hard\libc.a(libc_a-mprec.o)
                                                  i:/mcu/gnu_tools_for_arm/11.3_rel1/bin/../lib/gcc/arm-none-eabi/11.3.1/thumb/v7e-m+fp/hard\libc.a(libc_a-dtoa.o)
__mprec_tens                                      i:/mcu/gnu_tools_for_arm/11.3_rel1/bin/../lib/gcc/arm-none-eabi/11.3.1/thumb/v7e-m+fp/hard\libc.a(libc_a-mprec.o)
                                                  i:/mcu/gnu_tools_for_arm/11.3_rel1/bin/../lib/gcc/arm-none-eabi/11.3.1/thumb/v7e-m+fp/hard\libc.a(libc_a-dtoa.o)
__mprec_tinytens                                  i:/mcu/gnu_tools_for_arm/11.3_rel1/bin/../lib/gcc/arm-none-eabi/11.3.1/thumb/v7e-m+fp/hard\libc.a(libc_a-mprec.o)
__muldf3                                          i:/mcu/gnu_tools_for_arm/11.3_rel1/bin/../lib/gcc/arm-none-eabi/11.3.1/thumb/v7e-m+fp/hard\libgcc.a(_arm_muldivdf3.o)
                                                  i:/mcu/gnu_tools_for_arm/11.3_rel1/bin/../lib/gcc/arm-none-eabi/11.3.1/thumb/v7e-m+fp/hard\libgcc.a(_arm_muldf3.o)
__multadd                                         i:/mcu/gnu_tools_for_arm/11.3_rel1/bin/../lib/gcc/arm-none-eabi/11.3.1/thumb/v7e-m+fp/hard\libc.a(libc_a-mprec.o)
                                                  i:/mcu/gnu_tools_for_arm/11.3_rel1/bin/../lib/gcc/arm-none-eabi/11.3.1/thumb/v7e-m+fp/hard\libc.a(libc_a-dtoa.o)
__multiply                                        i:/mcu/gnu_tools_for_arm/11.3_rel1/bin/../lib/gcc/arm-none-eabi/11.3.1/thumb/v7e-m+fp/hard\libc.a(libc_a-mprec.o)
                                                  i:/mcu/gnu_tools_for_arm/11.3_rel1/bin/../lib/gcc/arm-none-eabi/11.3.1/thumb/v7e-m+fp/hard\libc.a(libc_a-dtoa.o)
__nedf2                                           i:/mcu/gnu_tools_for_arm/11.3_rel1/bin/../lib/gcc/arm-none-eabi/11.3.1/thumb/v7e-m+fp/hard\libgcc.a(_arm_cmpdf2.o)
__pow5mult                                        i:/mcu/gnu_tools_for_arm/11.3_rel1/bin/../lib/gcc/arm-none-eabi/11.3.1/thumb/v7e-m+fp/hard\libc.a(libc_a-mprec.o)
                                                  i:/mcu/gnu_tools_for_arm/11.3_rel1/bin/../lib/gcc/arm-none-eabi/11.3.1/thumb/v7e-m+fp/hard\libc.a(libc_a-dtoa.o)
__preinit_array_end                               i:/mcu/gnu_tools_for_arm/11.3_rel1/bin/../lib/gcc/arm-none-eabi/11.3.1/thumb/v7e-m+fp/hard\libc.a(libc_a-init.o)
__preinit_array_start                             i:/mcu/gnu_tools_for_arm/11.3_rel1/bin/../lib/gcc/arm-none-eabi/11.3.1/thumb/v7e-m+fp/hard\libc.a(libc_a-init.o)
__preinit_end                                     build/user_periph.o
__preinit_start                                   build/user_periph.o
__ratio                                           i:/mcu/gnu_tools_for_arm/11.3_rel1/bin/../lib/gcc/arm-none-eabi/11.3.1/thumb/v7e-m+fp/hard\libc.a(libc_a-mprec.o)
__register_exitproc                               i:/mcu/gnu_tools_for_arm/11.3_rel1/bin/../lib/gcc/arm-none-eabi/11.3.1/thumb/v7e-m+fp/hard\libc.a(libc_a-__atexit.o)
                                                  i:/mcu/gnu_tools_for_arm/11.3_rel1/bin/../lib/gcc/arm-none-eabi/11.3.1/thumb/v7e-m+fp/hard\libc.a(libc_a-atexit.o)
__register_frame_info                             i:/mcu/gnu_tools_for_arm/11.3_rel1/bin/../lib/gcc/arm-none-eabi/11.3.1/thumb/v7e-m+fp/hard/crtbegin.o
__retarget_lock_acquire                           i:/mcu/gnu_tools_for_arm/11.3_rel1/bin/../lib/gcc/arm-none-eabi/11.3.1/thumb/v7e-m+fp/hard\libc.a(libc_a-lock.o)
__retarget_lock_acquire_recursive                 i:/mcu/gnu_tools_for_arm/11.3_rel1/bin/../lib/gcc/arm-none-eabi/11.3.1/thumb/v7e-m+fp/hard\libc.a(libc_a-lock.o)
                                                  i:/mcu/gnu_tools_for_arm/11.3_rel1/bin/../lib/gcc/arm-none-eabi/11.3.1/thumb/v7e-m+fp/hard\libc.a(libc_a-fputwc.o)
                                                  i:/mcu/gnu_tools_for_arm/11.3_rel1/bin/../lib/gcc/arm-none-eabi/11.3.1/thumb/v7e-m+fp/hard\libc.a(libc_a-vfiprintf.o)
                                                  i:/mcu/gnu_tools_for_arm/11.3_rel1/bin/../lib/gcc/arm-none-eabi/11.3.1/thumb/v7e-m+fp/hard\libc.a(libc_a-envlock.o)
                                                  i:/mcu/gnu_tools_for_arm/11.3_rel1/bin/../lib/gcc/arm-none-eabi/11.3.1/thumb/v7e-m+fp/hard\libc.a(libc_a-__atexit.o)
                                                  i:/mcu/gnu_tools_for_arm/11.3_rel1/bin/../lib/gcc/arm-none-eabi/11.3.1/thumb/v7e-m+fp/hard\libc.a(libc_a-fflush.o)
                                                  i:/mcu/gnu_tools_for_arm/11.3_rel1/bin/../lib/gcc/arm-none-eabi/11.3.1/thumb/v7e-m+fp/hard\libc.a(libc_a-fclose.o)
                                                  i:/mcu/gnu_tools_for_arm/11.3_rel1/bin/../lib/gcc/arm-none-eabi/11.3.1/thumb/v7e-m+fp/hard\libc.a(libc_a-mlock.o)
                                                  i:/mcu/gnu_tools_for_arm/11.3_rel1/bin/../lib/gcc/arm-none-eabi/11.3.1/thumb/v7e-m+fp/hard\libc.a(libc_a-__call_atexit.o)
                                                  i:/mcu/gnu_tools_for_arm/11.3_rel1/bin/../lib/gcc/arm-none-eabi/11.3.1/thumb/v7e-m+fp/hard\libc.a(libc_a-findfp.o)
__retarget_lock_close                             i:/mcu/gnu_tools_for_arm/11.3_rel1/bin/../lib/gcc/arm-none-eabi/11.3.1/thumb/v7e-m+fp/hard\libc.a(libc_a-lock.o)
__retarget_lock_close_recursive                   i:/mcu/gnu_tools_for_arm/11.3_rel1/bin/../lib/gcc/arm-none-eabi/11.3.1/thumb/v7e-m+fp/hard\libc.a(libc_a-lock.o)
                                                  i:/mcu/gnu_tools_for_arm/11.3_rel1/bin/../lib/gcc/arm-none-eabi/11.3.1/thumb/v7e-m+fp/hard\libc.a(libc_a-vfiprintf.o)
                                                  i:/mcu/gnu_tools_for_arm/11.3_rel1/bin/../lib/gcc/arm-none-eabi/11.3.1/thumb/v7e-m+fp/hard\libc.a(libc_a-fclose.o)
__retarget_lock_init                              i:/mcu/gnu_tools_for_arm/11.3_rel1/bin/../lib/gcc/arm-none-eabi/11.3.1/thumb/v7e-m+fp/hard\libc.a(libc_a-lock.o)
__retarget_lock_init_recursive                    i:/mcu/gnu_tools_for_arm/11.3_rel1/bin/../lib/gcc/arm-none-eabi/11.3.1/thumb/v7e-m+fp/hard\libc.a(libc_a-lock.o)
                                                  i:/mcu/gnu_tools_for_arm/11.3_rel1/bin/../lib/gcc/arm-none-eabi/11.3.1/thumb/v7e-m+fp/hard\libc.a(libc_a-vfiprintf.o)
                                                  i:/mcu/gnu_tools_for_arm/11.3_rel1/bin/../lib/gcc/arm-none-eabi/11.3.1/thumb/v7e-m+fp/hard\libc.a(libc_a-findfp.o)
__retarget_lock_release                           i:/mcu/gnu_tools_for_arm/11.3_rel1/bin/../lib/gcc/arm-none-eabi/11.3.1/thumb/v7e-m+fp/hard\libc.a(libc_a-lock.o)
__retarget_lock_release_recursive                 i:/mcu/gnu_tools_for_arm/11.3_rel1/bin/../lib/gcc/arm-none-eabi/11.3.1/thumb/v7e-m+fp/hard\libc.a(libc_a-lock.o)
                                                  i:/mcu/gnu_tools_for_arm/11.3_rel1/bin/../lib/gcc/arm-none-eabi/11.3.1/thumb/v7e-m+fp/hard\libc.a(libc_a-fputwc.o)
                                                  i:/mcu/gnu_tools_for_arm/11.3_rel1/bin/../lib/gcc/arm-none-eabi/11.3.1/thumb/v7e-m+fp/hard\libc.a(libc_a-vfiprintf.o)
                                                  i:/mcu/gnu_tools_for_arm/11.3_rel1/bin/../lib/gcc/arm-none-eabi/11.3.1/thumb/v7e-m+fp/hard\libc.a(libc_a-envlock.o)
                                                  i:/mcu/gnu_tools_for_arm/11.3_rel1/bin/../lib/gcc/arm-none-eabi/11.3.1/thumb/v7e-m+fp/hard\libc.a(libc_a-__atexit.o)
                                                  i:/mcu/gnu_tools_for_arm/11.3_rel1/bin/../lib/gcc/arm-none-eabi/11.3.1/thumb/v7e-m+fp/hard\libc.a(libc_a-fflush.o)
                                                  i:/mcu/gnu_tools_for_arm/11.3_rel1/bin/../lib/gcc/arm-none-eabi/11.3.1/thumb/v7e-m+fp/hard\libc.a(libc_a-fclose.o)
                                                  i:/mcu/gnu_tools_for_arm/11.3_rel1/bin/../lib/gcc/arm-none-eabi/11.3.1/thumb/v7e-m+fp/hard\libc.a(libc_a-mlock.o)
                                                  i:/mcu/gnu_tools_for_arm/11.3_rel1/bin/../lib/gcc/arm-none-eabi/11.3.1/thumb/v7e-m+fp/hard\libc.a(libc_a-__call_atexit.o)
                                                  i:/mcu/gnu_tools_for_arm/11.3_rel1/bin/../lib/gcc/arm-none-eabi/11.3.1/thumb/v7e-m+fp/hard\libc.a(libc_a-findfp.o)
__retarget_lock_try_acquire                       i:/mcu/gnu_tools_for_arm/11.3_rel1/bin/../lib/gcc/arm-none-eabi/11.3.1/thumb/v7e-m+fp/hard\libc.a(libc_a-lock.o)
__retarget_lock_try_acquire_recursive             i:/mcu/gnu_tools_for_arm/11.3_rel1/bin/../lib/gcc/arm-none-eabi/11.3.1/thumb/v7e-m+fp/hard\libc.a(libc_a-lock.o)
__s2b                                             i:/mcu/gnu_tools_for_arm/11.3_rel1/bin/../lib/gcc/arm-none-eabi/11.3.1/thumb/v7e-m+fp/hard\libc.a(libc_a-mprec.o)
__sclose                                          i:/mcu/gnu_tools_for_arm/11.3_rel1/bin/../lib/gcc/arm-none-eabi/11.3.1/thumb/v7e-m+fp/hard\libc.a(libc_a-stdio.o)
                                                  i:/mcu/gnu_tools_for_arm/11.3_rel1/bin/../lib/gcc/arm-none-eabi/11.3.1/thumb/v7e-m+fp/hard\libc.a(libc_a-findfp.o)
__seofread                                        i:/mcu/gnu_tools_for_arm/11.3_rel1/bin/../lib/gcc/arm-none-eabi/11.3.1/thumb/v7e-m+fp/hard\libc.a(libc_a-stdio.o)
__set_ctype                                       i:/mcu/gnu_tools_for_arm/11.3_rel1/bin/../lib/gcc/arm-none-eabi/11.3.1/thumb/v7e-m+fp/hard\libc.a(libc_a-ctype_.o)
                                                  i:/mcu/gnu_tools_for_arm/11.3_rel1/bin/../lib/gcc/arm-none-eabi/11.3.1/thumb/v7e-m+fp/hard\libc.a(libc_a-locale.o)
__sf                                              i:/mcu/gnu_tools_for_arm/11.3_rel1/bin/../lib/gcc/arm-none-eabi/11.3.1/thumb/v7e-m+fp/hard\libc.a(libc_a-findfp.o)
                                                  i:/mcu/gnu_tools_for_arm/11.3_rel1/bin/../lib/gcc/arm-none-eabi/11.3.1/thumb/v7e-m+fp/hard\libc.a(libc_a-impure.o)
__sflush_r                                        i:/mcu/gnu_tools_for_arm/11.3_rel1/bin/../lib/gcc/arm-none-eabi/11.3.1/thumb/v7e-m+fp/hard\libc.a(libc_a-fflush.o)
                                                  i:/mcu/gnu_tools_for_arm/11.3_rel1/bin/../lib/gcc/arm-none-eabi/11.3.1/thumb/v7e-m+fp/hard\libc.a(libc_a-fclose.o)
__sfp                                             i:/mcu/gnu_tools_for_arm/11.3_rel1/bin/../lib/gcc/arm-none-eabi/11.3.1/thumb/v7e-m+fp/hard\libc.a(libc_a-findfp.o)
__sfp_lock_acquire                                i:/mcu/gnu_tools_for_arm/11.3_rel1/bin/../lib/gcc/arm-none-eabi/11.3.1/thumb/v7e-m+fp/hard\libc.a(libc_a-findfp.o)
                                                  i:/mcu/gnu_tools_for_arm/11.3_rel1/bin/../lib/gcc/arm-none-eabi/11.3.1/thumb/v7e-m+fp/hard\libc.a(libc_a-fclose.o)
__sfp_lock_release                                i:/mcu/gnu_tools_for_arm/11.3_rel1/bin/../lib/gcc/arm-none-eabi/11.3.1/thumb/v7e-m+fp/hard\libc.a(libc_a-findfp.o)
                                                  i:/mcu/gnu_tools_for_arm/11.3_rel1/bin/../lib/gcc/arm-none-eabi/11.3.1/thumb/v7e-m+fp/hard\libc.a(libc_a-fclose.o)
__sfvwrite_r                                      i:/mcu/gnu_tools_for_arm/11.3_rel1/bin/../lib/gcc/arm-none-eabi/11.3.1/thumb/v7e-m+fp/hard\libc.a(libc_a-fvwrite.o)
                                                  i:/mcu/gnu_tools_for_arm/11.3_rel1/bin/../lib/gcc/arm-none-eabi/11.3.1/thumb/v7e-m+fp/hard\libc.a(libc_a-vfiprintf.o)
__sglue                                           i:/mcu/gnu_tools_for_arm/11.3_rel1/bin/../lib/gcc/arm-none-eabi/11.3.1/thumb/v7e-m+fp/hard\libc.a(libc_a-findfp.o)
                                                  i:/mcu/gnu_tools_for_arm/11.3_rel1/bin/../lib/gcc/arm-none-eabi/11.3.1/thumb/v7e-m+fp/hard\libc.a(libc_a-fflush.o)
__sigtramp                                        i:/mcu/gnu_tools_for_arm/11.3_rel1/bin/../lib/gcc/arm-none-eabi/11.3.1/thumb/v7e-m+fp/hard\libc.a(libc_a-signal.o)
__sigtramp_r                                      i:/mcu/gnu_tools_for_arm/11.3_rel1/bin/../lib/gcc/arm-none-eabi/11.3.1/thumb/v7e-m+fp/hard\libc.a(libc_a-signal.o)
__sinit                                           i:/mcu/gnu_tools_for_arm/11.3_rel1/bin/../lib/gcc/arm-none-eabi/11.3.1/thumb/v7e-m+fp/hard\libc.a(libc_a-findfp.o)
                                                  i:/mcu/gnu_tools_for_arm/11.3_rel1/bin/../lib/gcc/arm-none-eabi/11.3.1/thumb/v7e-m+fp/hard\libc.a(libc_a-wbuf.o)
                                                  i:/mcu/gnu_tools_for_arm/11.3_rel1/bin/../lib/gcc/arm-none-eabi/11.3.1/thumb/v7e-m+fp/hard\libc.a(libc_a-fputwc.o)
                                                  i:/mcu/gnu_tools_for_arm/11.3_rel1/bin/../lib/gcc/arm-none-eabi/11.3.1/thumb/v7e-m+fp/hard\libc.a(libc_a-wsetup.o)
                                                  i:/mcu/gnu_tools_for_arm/11.3_rel1/bin/../lib/gcc/arm-none-eabi/11.3.1/thumb/v7e-m+fp/hard\libc.a(libc_a-vfiprintf.o)
                                                  i:/mcu/gnu_tools_for_arm/11.3_rel1/bin/../lib/gcc/arm-none-eabi/11.3.1/thumb/v7e-m+fp/hard\libc.a(libc_a-fflush.o)
                                                  i:/mcu/gnu_tools_for_arm/11.3_rel1/bin/../lib/gcc/arm-none-eabi/11.3.1/thumb/v7e-m+fp/hard\libc.a(libc_a-fclose.o)
__sjis_mbtowc                                     i:/mcu/gnu_tools_for_arm/11.3_rel1/bin/../lib/gcc/arm-none-eabi/11.3.1/thumb/v7e-m+fp/hard\libc.a(libc_a-mbtowc_r.o)
                                                  i:/mcu/gnu_tools_for_arm/11.3_rel1/bin/../lib/gcc/arm-none-eabi/11.3.1/thumb/v7e-m+fp/hard\libc.a(libc_a-locale.o)
__sjis_wctomb                                     i:/mcu/gnu_tools_for_arm/11.3_rel1/bin/../lib/gcc/arm-none-eabi/11.3.1/thumb/v7e-m+fp/hard\libc.a(libc_a-wctomb_r.o)
                                                  i:/mcu/gnu_tools_for_arm/11.3_rel1/bin/../lib/gcc/arm-none-eabi/11.3.1/thumb/v7e-m+fp/hard\libc.a(libc_a-locale.o)
__smakebuf_r                                      i:/mcu/gnu_tools_for_arm/11.3_rel1/bin/../lib/gcc/arm-none-eabi/11.3.1/thumb/v7e-m+fp/hard\libc.a(libc_a-makebuf.o)
                                                  i:/mcu/gnu_tools_for_arm/11.3_rel1/bin/../lib/gcc/arm-none-eabi/11.3.1/thumb/v7e-m+fp/hard\libc.a(libc_a-wsetup.o)
__sprint_r                                        i:/mcu/gnu_tools_for_arm/11.3_rel1/bin/../lib/gcc/arm-none-eabi/11.3.1/thumb/v7e-m+fp/hard\libc.a(libc_a-vfiprintf.o)
__sread                                           i:/mcu/gnu_tools_for_arm/11.3_rel1/bin/../lib/gcc/arm-none-eabi/11.3.1/thumb/v7e-m+fp/hard\libc.a(libc_a-stdio.o)
                                                  i:/mcu/gnu_tools_for_arm/11.3_rel1/bin/../lib/gcc/arm-none-eabi/11.3.1/thumb/v7e-m+fp/hard\libc.a(libc_a-findfp.o)
__sseek                                           i:/mcu/gnu_tools_for_arm/11.3_rel1/bin/../lib/gcc/arm-none-eabi/11.3.1/thumb/v7e-m+fp/hard\libc.a(libc_a-stdio.o)
                                                  i:/mcu/gnu_tools_for_arm/11.3_rel1/bin/../lib/gcc/arm-none-eabi/11.3.1/thumb/v7e-m+fp/hard\libc.a(libc_a-findfp.o)
__ssprint_r                                       i:/mcu/gnu_tools_for_arm/11.3_rel1/bin/../lib/gcc/arm-none-eabi/11.3.1/thumb/v7e-m+fp/hard\libc.a(libc_a-svfiprintf.o)
                                                  i:/mcu/gnu_tools_for_arm/11.3_rel1/bin/../lib/gcc/arm-none-eabi/11.3.1/thumb/v7e-m+fp/hard\libc.a(libc_a-svfprintf.o)
__stack                                           i:/mcu/gnu_tools_for_arm/11.3_rel1/bin/../lib/gcc/arm-none-eabi/11.3.1/thumb/v7e-m+fp/hard/crt0.o
__stdio_exit_handler                              i:/mcu/gnu_tools_for_arm/11.3_rel1/bin/../lib/gcc/arm-none-eabi/11.3.1/thumb/v7e-m+fp/hard\libc.a(libc_a-findfp.o)
                                                  i:/mcu/gnu_tools_for_arm/11.3_rel1/bin/../lib/gcc/arm-none-eabi/11.3.1/thumb/v7e-m+fp/hard\libc.a(libc_a-exit.o)
__subdf3                                          i:/mcu/gnu_tools_for_arm/11.3_rel1/bin/../lib/gcc/arm-none-eabi/11.3.1/thumb/v7e-m+fp/hard\libgcc.a(_arm_addsubdf3.o)
__swbuf                                           i:/mcu/gnu_tools_for_arm/11.3_rel1/bin/../lib/gcc/arm-none-eabi/11.3.1/thumb/v7e-m+fp/hard\libc.a(libc_a-wbuf.o)
__swbuf_r                                         i:/mcu/gnu_tools_for_arm/11.3_rel1/bin/../lib/gcc/arm-none-eabi/11.3.1/thumb/v7e-m+fp/hard\libc.a(libc_a-wbuf.o)
                                                  i:/mcu/gnu_tools_for_arm/11.3_rel1/bin/../lib/gcc/arm-none-eabi/11.3.1/thumb/v7e-m+fp/hard\libc.a(libc_a-fputwc.o)
__swhatbuf_r                                      i:/mcu/gnu_tools_for_arm/11.3_rel1/bin/../lib/gcc/arm-none-eabi/11.3.1/thumb/v7e-m+fp/hard\libc.a(libc_a-makebuf.o)
__swrite                                          i:/mcu/gnu_tools_for_arm/11.3_rel1/bin/../lib/gcc/arm-none-eabi/11.3.1/thumb/v7e-m+fp/hard\libc.a(libc_a-stdio.o)
                                                  i:/mcu/gnu_tools_for_arm/11.3_rel1/bin/../lib/gcc/arm-none-eabi/11.3.1/thumb/v7e-m+fp/hard\libc.a(libc_a-findfp.o)
__swsetup_r                                       i:/mcu/gnu_tools_for_arm/11.3_rel1/bin/../lib/gcc/arm-none-eabi/11.3.1/thumb/v7e-m+fp/hard\libc.a(libc_a-wsetup.o)
                                                  i:/mcu/gnu_tools_for_arm/11.3_rel1/bin/../lib/gcc/arm-none-eabi/11.3.1/thumb/v7e-m+fp/hard\libc.a(libc_a-wbuf.o)
                                                  i:/mcu/gnu_tools_for_arm/11.3_rel1/bin/../lib/gcc/arm-none-eabi/11.3.1/thumb/v7e-m+fp/hard\libc.a(libc_a-fvwrite.o)
                                                  i:/mcu/gnu_tools_for_arm/11.3_rel1/bin/../lib/gcc/arm-none-eabi/11.3.1/thumb/v7e-m+fp/hard\libc.a(libc_a-vfiprintf.o)
__ulp                                             i:/mcu/gnu_tools_for_arm/11.3_rel1/bin/../lib/gcc/arm-none-eabi/11.3.1/thumb/v7e-m+fp/hard\libc.a(libc_a-mprec.o)
__unorddf2                                        i:/mcu/gnu_tools_for_arm/11.3_rel1/bin/../lib/gcc/arm-none-eabi/11.3.1/thumb/v7e-m+fp/hard\libgcc.a(_arm_unorddf2.o)
__utf8_mbtowc                                     i:/mcu/gnu_tools_for_arm/11.3_rel1/bin/../lib/gcc/arm-none-eabi/11.3.1/thumb/v7e-m+fp/hard\libc.a(libc_a-mbtowc_r.o)
                                                  i:/mcu/gnu_tools_for_arm/11.3_rel1/bin/../lib/gcc/arm-none-eabi/11.3.1/thumb/v7e-m+fp/hard\libc.a(libc_a-locale.o)
__utf8_wctomb                                     i:/mcu/gnu_tools_for_arm/11.3_rel1/bin/../lib/gcc/arm-none-eabi/11.3.1/thumb/v7e-m+fp/hard\libc.a(libc_a-wctomb_r.o)
                                                  i:/mcu/gnu_tools_for_arm/11.3_rel1/bin/../lib/gcc/arm-none-eabi/11.3.1/thumb/v7e-m+fp/hard\libc.a(libc_a-locale.o)
_calloc_r                                         i:/mcu/gnu_tools_for_arm/11.3_rel1/bin/../lib/gcc/arm-none-eabi/11.3.1/thumb/v7e-m+fp/hard\libc.a(libc_a-callocr.o)
                                                  i:/mcu/gnu_tools_for_arm/11.3_rel1/bin/../lib/gcc/arm-none-eabi/11.3.1/thumb/v7e-m+fp/hard\libc.a(libc_a-mprec.o)
_close                                            build/syscalls.o
                                                  i:/mcu/gnu_tools_for_arm/11.3_rel1/bin/../lib/gcc/arm-none-eabi/11.3.1/thumb/v7e-m+fp/hard\libc.a(libc_a-closer.o)
_close_r                                          i:/mcu/gnu_tools_for_arm/11.3_rel1/bin/../lib/gcc/arm-none-eabi/11.3.1/thumb/v7e-m+fp/hard\libc.a(libc_a-closer.o)
                                                  i:/mcu/gnu_tools_for_arm/11.3_rel1/bin/../lib/gcc/arm-none-eabi/11.3.1/thumb/v7e-m+fp/hard\libc.a(libc_a-stdio.o)
_ctype_                                           i:/mcu/gnu_tools_for_arm/11.3_rel1/bin/../lib/gcc/arm-none-eabi/11.3.1/thumb/v7e-m+fp/hard\libc.a(libc_a-ctype_.o)
                                                  i:/mcu/gnu_tools_for_arm/11.3_rel1/bin/../lib/gcc/arm-none-eabi/11.3.1/thumb/v7e-m+fp/hard\libc.a(libc_a-strncasecmp.o)
                                                  i:/mcu/gnu_tools_for_arm/11.3_rel1/bin/../lib/gcc/arm-none-eabi/11.3.1/thumb/v7e-m+fp/hard\libc.a(libc_a-strcasecmp.o)
                                                  i:/mcu/gnu_tools_for_arm/11.3_rel1/bin/../lib/gcc/arm-none-eabi/11.3.1/thumb/v7e-m+fp/hard\libc.a(libc_a-strtol.o)
                                                  i:/mcu/gnu_tools_for_arm/11.3_rel1/bin/../lib/gcc/arm-none-eabi/11.3.1/thumb/v7e-m+fp/hard\libc.a(libc_a-locale.o)
_dtoa_r                                           i:/mcu/gnu_tools_for_arm/11.3_rel1/bin/../lib/gcc/arm-none-eabi/11.3.1/thumb/v7e-m+fp/hard\libc.a(libc_a-dtoa.o)
                                                  i:/mcu/gnu_tools_for_arm/11.3_rel1/bin/../lib/gcc/arm-none-eabi/11.3.1/thumb/v7e-m+fp/hard\libc.a(libc_a-svfprintf.o)
_execve                                           build/syscalls.o
_exit                                             build/syscalls.o
                                                  i:/mcu/gnu_tools_for_arm/11.3_rel1/bin/../lib/gcc/arm-none-eabi/11.3.1/thumb/v7e-m+fp/hard\libc.a(libc_a-abort.o)
                                                  i:/mcu/gnu_tools_for_arm/11.3_rel1/bin/../lib/gcc/arm-none-eabi/11.3.1/thumb/v7e-m+fp/hard\libc.a(libc_a-exit.o)
_fclose_r                                         i:/mcu/gnu_tools_for_arm/11.3_rel1/bin/../lib/gcc/arm-none-eabi/11.3.1/thumb/v7e-m+fp/hard\libc.a(libc_a-fclose.o)
                                                  i:/mcu/gnu_tools_for_arm/11.3_rel1/bin/../lib/gcc/arm-none-eabi/11.3.1/thumb/v7e-m+fp/hard\libc.a(libc_a-findfp.o)
_fflush_r                                         i:/mcu/gnu_tools_for_arm/11.3_rel1/bin/../lib/gcc/arm-none-eabi/11.3.1/thumb/v7e-m+fp/hard\libc.a(libc_a-fflush.o)
                                                  i:/mcu/gnu_tools_for_arm/11.3_rel1/bin/../lib/gcc/arm-none-eabi/11.3.1/thumb/v7e-m+fp/hard\libc.a(libc_a-wbuf.o)
                                                  i:/mcu/gnu_tools_for_arm/11.3_rel1/bin/../lib/gcc/arm-none-eabi/11.3.1/thumb/v7e-m+fp/hard\libc.a(libc_a-fvwrite.o)
                                                  i:/mcu/gnu_tools_for_arm/11.3_rel1/bin/../lib/gcc/arm-none-eabi/11.3.1/thumb/v7e-m+fp/hard\libc.a(libc_a-vfiprintf.o)
_findenv_r                                        i:/mcu/gnu_tools_for_arm/11.3_rel1/bin/../lib/gcc/arm-none-eabi/11.3.1/thumb/v7e-m+fp/hard\libc.a(libc_a-getenv_r.o)
_fini                                             i:/mcu/gnu_tools_for_arm/11.3_rel1/bin/../lib/gcc/arm-none-eabi/11.3.1/thumb/v7e-m+fp/hard/crti.o
                                                  i:/mcu/gnu_tools_for_arm/11.3_rel1/bin/../lib/gcc/arm-none-eabi/11.3.1/thumb/v7e-m+fp/hard\libc.a(libc_a-fini.o)
_fiprintf_r                                       i:/mcu/gnu_tools_for_arm/11.3_rel1/bin/../lib/gcc/arm-none-eabi/11.3.1/thumb/v7e-m+fp/hard\libc.a(libc_a-fiprintf.o)
_fork                                             build/syscalls.o
_fputwc_r                                         i:/mcu/gnu_tools_for_arm/11.3_rel1/bin/../lib/gcc/arm-none-eabi/11.3.1/thumb/v7e-m+fp/hard\libc.a(libc_a-fputwc.o)
                                                  i:/mcu/gnu_tools_for_arm/11.3_rel1/bin/../lib/gcc/arm-none-eabi/11.3.1/thumb/v7e-m+fp/hard\libc.a(libc_a-vfiprintf.o)
_free_r                                           i:/mcu/gnu_tools_for_arm/11.3_rel1/bin/../lib/gcc/arm-none-eabi/11.3.1/thumb/v7e-m+fp/hard\libc.a(libc_a-freer.o)
                                                  i:/mcu/gnu_tools_for_arm/11.3_rel1/bin/../lib/gcc/arm-none-eabi/11.3.1/thumb/v7e-m+fp/hard\libc.a(libc_a-wsetup.o)
                                                  i:/mcu/gnu_tools_for_arm/11.3_rel1/bin/../lib/gcc/arm-none-eabi/11.3.1/thumb/v7e-m+fp/hard\libc.a(libc_a-fvwrite.o)
                                                  i:/mcu/gnu_tools_for_arm/11.3_rel1/bin/../lib/gcc/arm-none-eabi/11.3.1/thumb/v7e-m+fp/hard\libc.a(libc_a-vfiprintf.o)
                                                  i:/mcu/gnu_tools_for_arm/11.3_rel1/bin/../lib/gcc/arm-none-eabi/11.3.1/thumb/v7e-m+fp/hard\libc.a(libc_a-reallocr.o)
                                                  i:/mcu/gnu_tools_for_arm/11.3_rel1/bin/../lib/gcc/arm-none-eabi/11.3.1/thumb/v7e-m+fp/hard\libc.a(libc_a-svfiprintf.o)
                                                  i:/mcu/gnu_tools_for_arm/11.3_rel1/bin/../lib/gcc/arm-none-eabi/11.3.1/thumb/v7e-m+fp/hard\libc.a(libc_a-fflush.o)
                                                  i:/mcu/gnu_tools_for_arm/11.3_rel1/bin/../lib/gcc/arm-none-eabi/11.3.1/thumb/v7e-m+fp/hard\libc.a(libc_a-fclose.o)
                                                  i:/mcu/gnu_tools_for_arm/11.3_rel1/bin/../lib/gcc/arm-none-eabi/11.3.1/thumb/v7e-m+fp/hard\libc.a(libc_a-svfprintf.o)
                                                  i:/mcu/gnu_tools_for_arm/11.3_rel1/bin/../lib/gcc/arm-none-eabi/11.3.1/thumb/v7e-m+fp/hard\libc.a(libc_a-mallocr.o)
                                                  i:/mcu/gnu_tools_for_arm/11.3_rel1/bin/../lib/gcc/arm-none-eabi/11.3.1/thumb/v7e-m+fp/hard\libc.a(libc_a-reent.o)
_fstat                                            build/syscalls.o
                                                  i:/mcu/gnu_tools_for_arm/11.3_rel1/bin/../lib/gcc/arm-none-eabi/11.3.1/thumb/v7e-m+fp/hard\libc.a(libc_a-fstatr.o)
_fstat_r                                          i:/mcu/gnu_tools_for_arm/11.3_rel1/bin/../lib/gcc/arm-none-eabi/11.3.1/thumb/v7e-m+fp/hard\libc.a(libc_a-fstatr.o)
                                                  i:/mcu/gnu_tools_for_arm/11.3_rel1/bin/../lib/gcc/arm-none-eabi/11.3.1/thumb/v7e-m+fp/hard\libc.a(libc_a-makebuf.o)
_fwalk_sglue                                      i:/mcu/gnu_tools_for_arm/11.3_rel1/bin/../lib/gcc/arm-none-eabi/11.3.1/thumb/v7e-m+fp/hard\libc.a(libc_a-fwalk.o)
                                                  i:/mcu/gnu_tools_for_arm/11.3_rel1/bin/../lib/gcc/arm-none-eabi/11.3.1/thumb/v7e-m+fp/hard\libc.a(libc_a-fflush.o)
                                                  i:/mcu/gnu_tools_for_arm/11.3_rel1/bin/../lib/gcc/arm-none-eabi/11.3.1/thumb/v7e-m+fp/hard\libc.a(libc_a-findfp.o)
_getenv_r                                         i:/mcu/gnu_tools_for_arm/11.3_rel1/bin/../lib/gcc/arm-none-eabi/11.3.1/thumb/v7e-m+fp/hard\libc.a(libc_a-getenv_r.o)
                                                  i:/mcu/gnu_tools_for_arm/11.3_rel1/bin/../lib/gcc/arm-none-eabi/11.3.1/thumb/v7e-m+fp/hard\libc.a(libc_a-locale.o)
_getpid                                           build/syscalls.o
                                                  i:/mcu/gnu_tools_for_arm/11.3_rel1/bin/../lib/gcc/arm-none-eabi/11.3.1/thumb/v7e-m+fp/hard\libc.a(libc_a-signalr.o)
_getpid_r                                         i:/mcu/gnu_tools_for_arm/11.3_rel1/bin/../lib/gcc/arm-none-eabi/11.3.1/thumb/v7e-m+fp/hard\libc.a(libc_a-signalr.o)
                                                  i:/mcu/gnu_tools_for_arm/11.3_rel1/bin/../lib/gcc/arm-none-eabi/11.3.1/thumb/v7e-m+fp/hard\libc.a(libc_a-signal.o)
_impure_data                                      i:/mcu/gnu_tools_for_arm/11.3_rel1/bin/../lib/gcc/arm-none-eabi/11.3.1/thumb/v7e-m+fp/hard\libc.a(libc_a-impure.o)
                                                  i:/mcu/gnu_tools_for_arm/11.3_rel1/bin/../lib/gcc/arm-none-eabi/11.3.1/thumb/v7e-m+fp/hard\libc.a(libc_a-fflush.o)
                                                  i:/mcu/gnu_tools_for_arm/11.3_rel1/bin/../lib/gcc/arm-none-eabi/11.3.1/thumb/v7e-m+fp/hard\libc.a(libc_a-findfp.o)
_impure_ptr                                       i:/mcu/gnu_tools_for_arm/11.3_rel1/bin/../lib/gcc/arm-none-eabi/11.3.1/thumb/v7e-m+fp/hard\libc.a(libc_a-impure.o)
                                                  i:/mcu/gnu_tools_for_arm/11.3_rel1/bin/../lib/gcc/arm-none-eabi/11.3.1/thumb/v7e-m+fp/hard\libc.a(libc_a-signal.o)
                                                  i:/mcu/gnu_tools_for_arm/11.3_rel1/bin/../lib/gcc/arm-none-eabi/11.3.1/thumb/v7e-m+fp/hard\libc.a(libc_a-wbuf.o)
                                                  i:/mcu/gnu_tools_for_arm/11.3_rel1/bin/../lib/gcc/arm-none-eabi/11.3.1/thumb/v7e-m+fp/hard\libc.a(libc_a-fputwc.o)
                                                  i:/mcu/gnu_tools_for_arm/11.3_rel1/bin/../lib/gcc/arm-none-eabi/11.3.1/thumb/v7e-m+fp/hard\libc.a(libc_a-wsetup.o)
                                                  i:/mcu/gnu_tools_for_arm/11.3_rel1/bin/../lib/gcc/arm-none-eabi/11.3.1/thumb/v7e-m+fp/hard\libc.a(libc_a-vfiprintf.o)
                                                  i:/mcu/gnu_tools_for_arm/11.3_rel1/bin/../lib/gcc/arm-none-eabi/11.3.1/thumb/v7e-m+fp/hard\libc.a(libc_a-fiprintf.o)
                                                  i:/mcu/gnu_tools_for_arm/11.3_rel1/bin/../lib/gcc/arm-none-eabi/11.3.1/thumb/v7e-m+fp/hard\libc.a(libc_a-wcsnrtombs.o)
                                                  i:/mcu/gnu_tools_for_arm/11.3_rel1/bin/../lib/gcc/arm-none-eabi/11.3.1/thumb/v7e-m+fp/hard\libc.a(libc_a-assert.o)
                                                  i:/mcu/gnu_tools_for_arm/11.3_rel1/bin/../lib/gcc/arm-none-eabi/11.3.1/thumb/v7e-m+fp/hard\libc.a(libc_a-wcsrtombs.o)
                                                  i:/mcu/gnu_tools_for_arm/11.3_rel1/bin/../lib/gcc/arm-none-eabi/11.3.1/thumb/v7e-m+fp/hard\libc.a(libc_a-wcrtomb.o)
                                                  i:/mcu/gnu_tools_for_arm/11.3_rel1/bin/../lib/gcc/arm-none-eabi/11.3.1/thumb/v7e-m+fp/hard\libc.a(libc_a-strtol.o)
                                                  i:/mcu/gnu_tools_for_arm/11.3_rel1/bin/../lib/gcc/arm-none-eabi/11.3.1/thumb/v7e-m+fp/hard\libc.a(libc_a-locale.o)
                                                  i:/mcu/gnu_tools_for_arm/11.3_rel1/bin/../lib/gcc/arm-none-eabi/11.3.1/thumb/v7e-m+fp/hard\libc.a(libc_a-fflush.o)
                                                  i:/mcu/gnu_tools_for_arm/11.3_rel1/bin/../lib/gcc/arm-none-eabi/11.3.1/thumb/v7e-m+fp/hard\libc.a(libc_a-fclose.o)
                                                  i:/mcu/gnu_tools_for_arm/11.3_rel1/bin/../lib/gcc/arm-none-eabi/11.3.1/thumb/v7e-m+fp/hard\libc.a(libc_a-errno.o)
                                                  i:/mcu/gnu_tools_for_arm/11.3_rel1/bin/../lib/gcc/arm-none-eabi/11.3.1/thumb/v7e-m+fp/hard\libc.a(libc_a-reent.o)
                                                  i:/mcu/gnu_tools_for_arm/11.3_rel1/bin/../lib/gcc/arm-none-eabi/11.3.1/thumb/v7e-m+fp/hard\libc.a(libc_a-sprintf.o)
_init                                             i:/mcu/gnu_tools_for_arm/11.3_rel1/bin/../lib/gcc/arm-none-eabi/11.3.1/thumb/v7e-m+fp/hard/crti.o
                                                  i:/mcu/gnu_tools_for_arm/11.3_rel1/bin/../lib/gcc/arm-none-eabi/11.3.1/thumb/v7e-m+fp/hard\libc.a(libc_a-init.o)
_init_signal                                      i:/mcu/gnu_tools_for_arm/11.3_rel1/bin/../lib/gcc/arm-none-eabi/11.3.1/thumb/v7e-m+fp/hard\libc.a(libc_a-signal.o)
_init_signal_r                                    i:/mcu/gnu_tools_for_arm/11.3_rel1/bin/../lib/gcc/arm-none-eabi/11.3.1/thumb/v7e-m+fp/hard\libc.a(libc_a-signal.o)
_isatty                                           build/syscalls.o
                                                  i:/mcu/gnu_tools_for_arm/11.3_rel1/bin/../lib/gcc/arm-none-eabi/11.3.1/thumb/v7e-m+fp/hard\libc.a(libc_a-isattyr.o)
_isatty_r                                         i:/mcu/gnu_tools_for_arm/11.3_rel1/bin/../lib/gcc/arm-none-eabi/11.3.1/thumb/v7e-m+fp/hard\libc.a(libc_a-isattyr.o)
                                                  i:/mcu/gnu_tools_for_arm/11.3_rel1/bin/../lib/gcc/arm-none-eabi/11.3.1/thumb/v7e-m+fp/hard\libc.a(libc_a-makebuf.o)
_kill                                             build/syscalls.o
                                                  i:/mcu/gnu_tools_for_arm/11.3_rel1/bin/../lib/gcc/arm-none-eabi/11.3.1/thumb/v7e-m+fp/hard\libc.a(libc_a-signalr.o)
_kill_r                                           i:/mcu/gnu_tools_for_arm/11.3_rel1/bin/../lib/gcc/arm-none-eabi/11.3.1/thumb/v7e-m+fp/hard\libc.a(libc_a-signalr.o)
                                                  i:/mcu/gnu_tools_for_arm/11.3_rel1/bin/../lib/gcc/arm-none-eabi/11.3.1/thumb/v7e-m+fp/hard\libc.a(libc_a-signal.o)
_link                                             build/syscalls.o
_localeconv_r                                     i:/mcu/gnu_tools_for_arm/11.3_rel1/bin/../lib/gcc/arm-none-eabi/11.3.1/thumb/v7e-m+fp/hard\libc.a(libc_a-localeconv.o)
                                                  i:/mcu/gnu_tools_for_arm/11.3_rel1/bin/../lib/gcc/arm-none-eabi/11.3.1/thumb/v7e-m+fp/hard\libc.a(libc_a-vfiprintf.o)
                                                  i:/mcu/gnu_tools_for_arm/11.3_rel1/bin/../lib/gcc/arm-none-eabi/11.3.1/thumb/v7e-m+fp/hard\libc.a(libc_a-svfiprintf.o)
                                                  i:/mcu/gnu_tools_for_arm/11.3_rel1/bin/../lib/gcc/arm-none-eabi/11.3.1/thumb/v7e-m+fp/hard\libc.a(libc_a-svfprintf.o)
_lseek                                            build/syscalls.o
                                                  i:/mcu/gnu_tools_for_arm/11.3_rel1/bin/../lib/gcc/arm-none-eabi/11.3.1/thumb/v7e-m+fp/hard\libc.a(libc_a-lseekr.o)
_lseek_r                                          i:/mcu/gnu_tools_for_arm/11.3_rel1/bin/../lib/gcc/arm-none-eabi/11.3.1/thumb/v7e-m+fp/hard\libc.a(libc_a-lseekr.o)
                                                  i:/mcu/gnu_tools_for_arm/11.3_rel1/bin/../lib/gcc/arm-none-eabi/11.3.1/thumb/v7e-m+fp/hard\libc.a(libc_a-stdio.o)
_mainCRTStartup                                   i:/mcu/gnu_tools_for_arm/11.3_rel1/bin/../lib/gcc/arm-none-eabi/11.3.1/thumb/v7e-m+fp/hard/crt0.o
                                                  build/startup_msp432p401r_gcc.o
_malloc_r                                         i:/mcu/gnu_tools_for_arm/11.3_rel1/bin/../lib/gcc/arm-none-eabi/11.3.1/thumb/v7e-m+fp/hard\libc.a(libc_a-mallocr.o)
                                                  i:/mcu/gnu_tools_for_arm/11.3_rel1/bin/../lib/gcc/arm-none-eabi/11.3.1/thumb/v7e-m+fp/hard\libc.a(libc_a-signal.o)
                                                  i:/mcu/gnu_tools_for_arm/11.3_rel1/bin/../lib/gcc/arm-none-eabi/11.3.1/thumb/v7e-m+fp/hard\libc.a(libc_a-makebuf.o)
                                                  i:/mcu/gnu_tools_for_arm/11.3_rel1/bin/../lib/gcc/arm-none-eabi/11.3.1/thumb/v7e-m+fp/hard\libc.a(libc_a-fvwrite.o)
                                                  i:/mcu/gnu_tools_for_arm/11.3_rel1/bin/../lib/gcc/arm-none-eabi/11.3.1/thumb/v7e-m+fp/hard\libc.a(libc_a-vfiprintf.o)
                                                  i:/mcu/gnu_tools_for_arm/11.3_rel1/bin/../lib/gcc/arm-none-eabi/11.3.1/thumb/v7e-m+fp/hard\libc.a(libc_a-reallocr.o)
                                                  i:/mcu/gnu_tools_for_arm/11.3_rel1/bin/../lib/gcc/arm-none-eabi/11.3.1/thumb/v7e-m+fp/hard\libc.a(libc_a-callocr.o)
                                                  i:/mcu/gnu_tools_for_arm/11.3_rel1/bin/../lib/gcc/arm-none-eabi/11.3.1/thumb/v7e-m+fp/hard\libc.a(libc_a-svfiprintf.o)
                                                  i:/mcu/gnu_tools_for_arm/11.3_rel1/bin/../lib/gcc/arm-none-eabi/11.3.1/thumb/v7e-m+fp/hard\libc.a(libc_a-svfprintf.o)
                                                  i:/mcu/gnu_tools_for_arm/11.3_rel1/bin/../lib/gcc/arm-none-eabi/11.3.1/thumb/v7e-m+fp/hard\libc.a(libc_a-findfp.o)
_malloc_trim_r                                    i:/mcu/gnu_tools_for_arm/11.3_rel1/bin/../lib/gcc/arm-none-eabi/11.3.1/thumb/v7e-m+fp/hard\libc.a(libc_a-freer.o)
_mbtowc_r                                         i:/mcu/gnu_tools_for_arm/11.3_rel1/bin/../lib/gcc/arm-none-eabi/11.3.1/thumb/v7e-m+fp/hard\libc.a(libc_a-mbtowc_r.o)
_mprec_log10                                      i:/mcu/gnu_tools_for_arm/11.3_rel1/bin/../lib/gcc/arm-none-eabi/11.3.1/thumb/v7e-m+fp/hard\libc.a(libc_a-mprec.o)
_open                                             build/syscalls.o
_raise_r                                          i:/mcu/gnu_tools_for_arm/11.3_rel1/bin/../lib/gcc/arm-none-eabi/11.3.1/thumb/v7e-m+fp/hard\libc.a(libc_a-signal.o)
_read                                             build/syscalls.o
                                                  i:/mcu/gnu_tools_for_arm/11.3_rel1/bin/../lib/gcc/arm-none-eabi/11.3.1/thumb/v7e-m+fp/hard\libc.a(libc_a-readr.o)
_read_r                                           i:/mcu/gnu_tools_for_arm/11.3_rel1/bin/../lib/gcc/arm-none-eabi/11.3.1/thumb/v7e-m+fp/hard\libc.a(libc_a-readr.o)
                                                  i:/mcu/gnu_tools_for_arm/11.3_rel1/bin/../lib/gcc/arm-none-eabi/11.3.1/thumb/v7e-m+fp/hard\libc.a(libc_a-stdio.o)
_realloc_r                                        i:/mcu/gnu_tools_for_arm/11.3_rel1/bin/../lib/gcc/arm-none-eabi/11.3.1/thumb/v7e-m+fp/hard\libc.a(libc_a-reallocr.o)
                                                  i:/mcu/gnu_tools_for_arm/11.3_rel1/bin/../lib/gcc/arm-none-eabi/11.3.1/thumb/v7e-m+fp/hard\libc.a(libc_a-fvwrite.o)
                                                  i:/mcu/gnu_tools_for_arm/11.3_rel1/bin/../lib/gcc/arm-none-eabi/11.3.1/thumb/v7e-m+fp/hard\libc.a(libc_a-svfiprintf.o)
_reclaim_reent                                    i:/mcu/gnu_tools_for_arm/11.3_rel1/bin/../lib/gcc/arm-none-eabi/11.3.1/thumb/v7e-m+fp/hard\libc.a(libc_a-reent.o)
_sbrk                                             i:/mcu/gnu_tools_for_arm/11.3_rel1/bin/../lib/gcc/arm-none-eabi/11.3.1/thumb/v7e-m+fp/hard\libnosys.a(sbrk.o)
                                                  i:/mcu/gnu_tools_for_arm/11.3_rel1/bin/../lib/gcc/arm-none-eabi/11.3.1/thumb/v7e-m+fp/hard\libc.a(libc_a-sbrkr.o)
_sbrk_r                                           i:/mcu/gnu_tools_for_arm/11.3_rel1/bin/../lib/gcc/arm-none-eabi/11.3.1/thumb/v7e-m+fp/hard\libc.a(libc_a-sbrkr.o)
                                                  i:/mcu/gnu_tools_for_arm/11.3_rel1/bin/../lib/gcc/arm-none-eabi/11.3.1/thumb/v7e-m+fp/hard\libc.a(libc_a-mallocr.o)
                                                  i:/mcu/gnu_tools_for_arm/11.3_rel1/bin/../lib/gcc/arm-none-eabi/11.3.1/thumb/v7e-m+fp/hard\libc.a(libc_a-freer.o)
_setlocale_r                                      i:/mcu/gnu_tools_for_arm/11.3_rel1/bin/../lib/gcc/arm-none-eabi/11.3.1/thumb/v7e-m+fp/hard\libc.a(libc_a-locale.o)
_signal_r                                         i:/mcu/gnu_tools_for_arm/11.3_rel1/bin/../lib/gcc/arm-none-eabi/11.3.1/thumb/v7e-m+fp/hard\libc.a(libc_a-signal.o)
_sprintf_r                                        i:/mcu/gnu_tools_for_arm/11.3_rel1/bin/../lib/gcc/arm-none-eabi/11.3.1/thumb/v7e-m+fp/hard\libc.a(libc_a-sprintf.o)
_stack_init                                       i:/mcu/gnu_tools_for_arm/11.3_rel1/bin/../lib/gcc/arm-none-eabi/11.3.1/thumb/v7e-m+fp/hard/crt0.o
_start                                            i:/mcu/gnu_tools_for_arm/11.3_rel1/bin/../lib/gcc/arm-none-eabi/11.3.1/thumb/v7e-m+fp/hard/crt0.o
_stat                                             build/syscalls.o
_strtol_r                                         i:/mcu/gnu_tools_for_arm/11.3_rel1/bin/../lib/gcc/arm-none-eabi/11.3.1/thumb/v7e-m+fp/hard\libc.a(libc_a-strtol.o)
_svfiprintf_r                                     i:/mcu/gnu_tools_for_arm/11.3_rel1/bin/../lib/gcc/arm-none-eabi/11.3.1/thumb/v7e-m+fp/hard\libc.a(libc_a-svfiprintf.o)
_svfprintf_r                                      i:/mcu/gnu_tools_for_arm/11.3_rel1/bin/../lib/gcc/arm-none-eabi/11.3.1/thumb/v7e-m+fp/hard\libc.a(libc_a-svfprintf.o)
                                                  i:/mcu/gnu_tools_for_arm/11.3_rel1/bin/../lib/gcc/arm-none-eabi/11.3.1/thumb/v7e-m+fp/hard\libc.a(libc_a-sprintf.o)
_times                                            build/syscalls.o
_unlink                                           build/syscalls.o
_vfiprintf_r                                      i:/mcu/gnu_tools_for_arm/11.3_rel1/bin/../lib/gcc/arm-none-eabi/11.3.1/thumb/v7e-m+fp/hard\libc.a(libc_a-vfiprintf.o)
                                                  i:/mcu/gnu_tools_for_arm/11.3_rel1/bin/../lib/gcc/arm-none-eabi/11.3.1/thumb/v7e-m+fp/hard\libc.a(libc_a-fiprintf.o)
_wait                                             build/syscalls.o
_wcrtomb_r                                        i:/mcu/gnu_tools_for_arm/11.3_rel1/bin/../lib/gcc/arm-none-eabi/11.3.1/thumb/v7e-m+fp/hard\libc.a(libc_a-wcrtomb.o)
                                                  i:/mcu/gnu_tools_for_arm/11.3_rel1/bin/../lib/gcc/arm-none-eabi/11.3.1/thumb/v7e-m+fp/hard\libc.a(libc_a-fputwc.o)
                                                  i:/mcu/gnu_tools_for_arm/11.3_rel1/bin/../lib/gcc/arm-none-eabi/11.3.1/thumb/v7e-m+fp/hard\libc.a(libc_a-vfiprintf.o)
                                                  i:/mcu/gnu_tools_for_arm/11.3_rel1/bin/../lib/gcc/arm-none-eabi/11.3.1/thumb/v7e-m+fp/hard\libc.a(libc_a-svfiprintf.o)
                                                  i:/mcu/gnu_tools_for_arm/11.3_rel1/bin/../lib/gcc/arm-none-eabi/11.3.1/thumb/v7e-m+fp/hard\libc.a(libc_a-svfprintf.o)
_wcsnrtombs_l                                     i:/mcu/gnu_tools_for_arm/11.3_rel1/bin/../lib/gcc/arm-none-eabi/11.3.1/thumb/v7e-m+fp/hard\libc.a(libc_a-wcsnrtombs.o)
_wcsnrtombs_r                                     i:/mcu/gnu_tools_for_arm/11.3_rel1/bin/../lib/gcc/arm-none-eabi/11.3.1/thumb/v7e-m+fp/hard\libc.a(libc_a-wcsnrtombs.o)
                                                  i:/mcu/gnu_tools_for_arm/11.3_rel1/bin/../lib/gcc/arm-none-eabi/11.3.1/thumb/v7e-m+fp/hard\libc.a(libc_a-wcsrtombs.o)
_wcsrtombs_r                                      i:/mcu/gnu_tools_for_arm/11.3_rel1/bin/../lib/gcc/arm-none-eabi/11.3.1/thumb/v7e-m+fp/hard\libc.a(libc_a-wcsrtombs.o)
                                                  i:/mcu/gnu_tools_for_arm/11.3_rel1/bin/../lib/gcc/arm-none-eabi/11.3.1/thumb/v7e-m+fp/hard\libc.a(libc_a-vfiprintf.o)
                                                  i:/mcu/gnu_tools_for_arm/11.3_rel1/bin/../lib/gcc/arm-none-eabi/11.3.1/thumb/v7e-m+fp/hard\libc.a(libc_a-svfiprintf.o)
                                                  i:/mcu/gnu_tools_for_arm/11.3_rel1/bin/../lib/gcc/arm-none-eabi/11.3.1/thumb/v7e-m+fp/hard\libc.a(libc_a-svfprintf.o)
_wctomb_r                                         i:/mcu/gnu_tools_for_arm/11.3_rel1/bin/../lib/gcc/arm-none-eabi/11.3.1/thumb/v7e-m+fp/hard\libc.a(libc_a-wctomb_r.o)
_write                                            build/syscalls.o
                                                  i:/mcu/gnu_tools_for_arm/11.3_rel1/bin/../lib/gcc/arm-none-eabi/11.3.1/thumb/v7e-m+fp/hard\libc.a(libc_a-writer.o)
_write_r                                          i:/mcu/gnu_tools_for_arm/11.3_rel1/bin/../lib/gcc/arm-none-eabi/11.3.1/thumb/v7e-m+fp/hard\libc.a(libc_a-writer.o)
                                                  i:/mcu/gnu_tools_for_arm/11.3_rel1/bin/../lib/gcc/arm-none-eabi/11.3.1/thumb/v7e-m+fp/hard\libc.a(libc_a-stdio.o)
abort                                             i:/mcu/gnu_tools_for_arm/11.3_rel1/bin/../lib/gcc/arm-none-eabi/11.3.1/thumb/v7e-m+fp/hard\libc.a(libc_a-abort.o)
                                                  i:/mcu/gnu_tools_for_arm/11.3_rel1/bin/../lib/gcc/arm-none-eabi/11.3.1/thumb/v7e-m+fp/hard\libc.a(libc_a-assert.o)
atexit                                            i:/mcu/gnu_tools_for_arm/11.3_rel1/bin/../lib/gcc/arm-none-eabi/11.3.1/thumb/v7e-m+fp/hard\libc.a(libc_a-atexit.o)
                                                  i:/mcu/gnu_tools_for_arm/11.3_rel1/bin/../lib/gcc/arm-none-eabi/11.3.1/thumb/v7e-m+fp/hard\libc.a(libc_a-__call_atexit.o)
                                                  i:/mcu/gnu_tools_for_arm/11.3_rel1/bin/../lib/gcc/arm-none-eabi/11.3.1/thumb/v7e-m+fp/hard/crt0.o
data_control_structure                            build/user_dma.o
end                                               i:/mcu/gnu_tools_for_arm/11.3_rel1/bin/../lib/gcc/arm-none-eabi/11.3.1/thumb/v7e-m+fp/hard\libnosys.a(sbrk.o)
environ                                           build/syscalls.o
                                                  i:/mcu/gnu_tools_for_arm/11.3_rel1/bin/../lib/gcc/arm-none-eabi/11.3.1/thumb/v7e-m+fp/hard\libc.a(libc_a-getenv_r.o)
errno                                             i:/mcu/gnu_tools_for_arm/11.3_rel1/bin/../lib/gcc/arm-none-eabi/11.3.1/thumb/v7e-m+fp/hard\libc.a(libc_a-reent.o)
                                                  i:/mcu/gnu_tools_for_arm/11.3_rel1/bin/../lib/gcc/arm-none-eabi/11.3.1/thumb/v7e-m+fp/hard\libc.a(libc_a-signalr.o)
                                                  i:/mcu/gnu_tools_for_arm/11.3_rel1/bin/../lib/gcc/arm-none-eabi/11.3.1/thumb/v7e-m+fp/hard\libc.a(libc_a-isattyr.o)
                                                  i:/mcu/gnu_tools_for_arm/11.3_rel1/bin/../lib/gcc/arm-none-eabi/11.3.1/thumb/v7e-m+fp/hard\libc.a(libc_a-fstatr.o)
                                                  i:/mcu/gnu_tools_for_arm/11.3_rel1/bin/../lib/gcc/arm-none-eabi/11.3.1/thumb/v7e-m+fp/hard\libc.a(libc_a-sbrkr.o)
                                                  i:/mcu/gnu_tools_for_arm/11.3_rel1/bin/../lib/gcc/arm-none-eabi/11.3.1/thumb/v7e-m+fp/hard\libc.a(libc_a-writer.o)
                                                  i:/mcu/gnu_tools_for_arm/11.3_rel1/bin/../lib/gcc/arm-none-eabi/11.3.1/thumb/v7e-m+fp/hard\libc.a(libc_a-readr.o)
                                                  i:/mcu/gnu_tools_for_arm/11.3_rel1/bin/../lib/gcc/arm-none-eabi/11.3.1/thumb/v7e-m+fp/hard\libc.a(libc_a-lseekr.o)
                                                  i:/mcu/gnu_tools_for_arm/11.3_rel1/bin/../lib/gcc/arm-none-eabi/11.3.1/thumb/v7e-m+fp/hard\libc.a(libc_a-closer.o)
exit                                              i:/mcu/gnu_tools_for_arm/11.3_rel1/bin/../lib/gcc/arm-none-eabi/11.3.1/thumb/v7e-m+fp/hard\libc.a(libc_a-exit.o)
                                                  i:/mcu/gnu_tools_for_arm/11.3_rel1/bin/../lib/gcc/arm-none-eabi/11.3.1/thumb/v7e-m+fp/hard/crt0.o
fclose                                            i:/mcu/gnu_tools_for_arm/11.3_rel1/bin/../lib/gcc/arm-none-eabi/11.3.1/thumb/v7e-m+fp/hard\libc.a(libc_a-fclose.o)
fflush                                            i:/mcu/gnu_tools_for_arm/11.3_rel1/bin/../lib/gcc/arm-none-eabi/11.3.1/thumb/v7e-m+fp/hard\libc.a(libc_a-fflush.o)
fiprintf                                          i:/mcu/gnu_tools_for_arm/11.3_rel1/bin/../lib/gcc/arm-none-eabi/11.3.1/thumb/v7e-m+fp/hard\libc.a(libc_a-fiprintf.o)
                                                  i:/mcu/gnu_tools_for_arm/11.3_rel1/bin/../lib/gcc/arm-none-eabi/11.3.1/thumb/v7e-m+fp/hard\libc.a(libc_a-assert.o)
fputwc                                            i:/mcu/gnu_tools_for_arm/11.3_rel1/bin/../lib/gcc/arm-none-eabi/11.3.1/thumb/v7e-m+fp/hard\libc.a(libc_a-fputwc.o)
frexp                                             i:/mcu/gnu_tools_for_arm/11.3_rel1/bin/../lib/gcc/arm-none-eabi/11.3.1/thumb/v7e-m+fp/hard\libc.a(libm_a-s_frexp.o)
                                                  i:/mcu/gnu_tools_for_arm/11.3_rel1/bin/../lib/gcc/arm-none-eabi/11.3.1/thumb/v7e-m+fp/hard\libc.a(libc_a-svfprintf.o)
hardware_init_hook                                i:/mcu/gnu_tools_for_arm/11.3_rel1/bin/../lib/gcc/arm-none-eabi/11.3.1/thumb/v7e-m+fp/hard/crt0.o
initialise_monitor_handles                        build/syscalls.o
interruptVectors                                  build/startup_msp432p401r_gcc.o
localeconv                                        i:/mcu/gnu_tools_for_arm/11.3_rel1/bin/../lib/gcc/arm-none-eabi/11.3.1/thumb/v7e-m+fp/hard\libc.a(libc_a-localeconv.o)
main                                              build/main.o
                                                  i:/mcu/gnu_tools_for_arm/11.3_rel1/bin/../lib/gcc/arm-none-eabi/11.3.1/thumb/v7e-m+fp/hard/crt0.o
memchr                                            i:/mcu/gnu_tools_for_arm/11.3_rel1/bin/../lib/gcc/arm-none-eabi/11.3.1/thumb/v7e-m+fp/hard\libc.a(libc_a-memchr.o)
                                                  i:/mcu/gnu_tools_for_arm/11.3_rel1/bin/../lib/gcc/arm-none-eabi/11.3.1/thumb/v7e-m+fp/hard\libc.a(libc_a-fvwrite.o)
                                                  i:/mcu/gnu_tools_for_arm/11.3_rel1/bin/../lib/gcc/arm-none-eabi/11.3.1/thumb/v7e-m+fp/hard\libc.a(libc_a-vfiprintf.o)
                                                  i:/mcu/gnu_tools_for_arm/11.3_rel1/bin/../lib/gcc/arm-none-eabi/11.3.1/thumb/v7e-m+fp/hard\libc.a(libc_a-svfiprintf.o)
                                                  i:/mcu/gnu_tools_for_arm/11.3_rel1/bin/../lib/gcc/arm-none-eabi/11.3.1/thumb/v7e-m+fp/hard\libc.a(libc_a-svfprintf.o)
memcpy                                            i:/mcu/gnu_tools_for_arm/11.3_rel1/bin/../lib/gcc/arm-none-eabi/11.3.1/thumb/v7e-m+fp/hard\libc.a(libc_a-memcpy.o)
                                                  i:/mcu/gnu_tools_for_arm/11.3_rel1/bin/../lib/gcc/arm-none-eabi/11.3.1/thumb/v7e-m+fp/hard\libc.a(libc_a-fvwrite.o)
                                                  i:/mcu/gnu_tools_for_arm/11.3_rel1/bin/../lib/gcc/arm-none-eabi/11.3.1/thumb/v7e-m+fp/hard\libc.a(libc_a-svfiprintf.o)
                                                  i:/mcu/gnu_tools_for_arm/11.3_rel1/bin/../lib/gcc/arm-none-eabi/11.3.1/thumb/v7e-m+fp/hard\libc.a(libc_a-mprec.o)
                                                  i:/mcu/gnu_tools_for_arm/11.3_rel1/bin/../lib/gcc/arm-none-eabi/11.3.1/thumb/v7e-m+fp/hard\libc.a(libc_a-dtoa.o)
memmove                                           i:/mcu/gnu_tools_for_arm/11.3_rel1/bin/../lib/gcc/arm-none-eabi/11.3.1/thumb/v7e-m+fp/hard\libc.a(libc_a-memmove.o)
                                                  i:/mcu/gnu_tools_for_arm/11.3_rel1/bin/../lib/gcc/arm-none-eabi/11.3.1/thumb/v7e-m+fp/hard\libc.a(libc_a-fvwrite.o)
                                                  i:/mcu/gnu_tools_for_arm/11.3_rel1/bin/../lib/gcc/arm-none-eabi/11.3.1/thumb/v7e-m+fp/hard\libc.a(libc_a-reallocr.o)
                                                  i:/mcu/gnu_tools_for_arm/11.3_rel1/bin/../lib/gcc/arm-none-eabi/11.3.1/thumb/v7e-m+fp/hard\libc.a(libc_a-svfiprintf.o)
memset                                            i:/mcu/gnu_tools_for_arm/11.3_rel1/bin/../lib/gcc/arm-none-eabi/11.3.1/thumb/v7e-m+fp/hard\libc.a(libc_a-memset.o)
                                                  i:/mcu/gnu_tools_for_arm/11.3_rel1/bin/../lib/gcc/arm-none-eabi/11.3.1/thumb/v7e-m+fp/hard\libc.a(libc_a-vfiprintf.o)
                                                  i:/mcu/gnu_tools_for_arm/11.3_rel1/bin/../lib/gcc/arm-none-eabi/11.3.1/thumb/v7e-m+fp/hard\libc.a(libc_a-callocr.o)
                                                  i:/mcu/gnu_tools_for_arm/11.3_rel1/bin/../lib/gcc/arm-none-eabi/11.3.1/thumb/v7e-m+fp/hard\libc.a(libc_a-svfiprintf.o)
                                                  i:/mcu/gnu_tools_for_arm/11.3_rel1/bin/../lib/gcc/arm-none-eabi/11.3.1/thumb/v7e-m+fp/hard\libc.a(libc_a-svfprintf.o)
                                                  i:/mcu/gnu_tools_for_arm/11.3_rel1/bin/../lib/gcc/arm-none-eabi/11.3.1/thumb/v7e-m+fp/hard\libc.a(libc_a-findfp.o)
                                                  i:/mcu/gnu_tools_for_arm/11.3_rel1/bin/../lib/gcc/arm-none-eabi/11.3.1/thumb/v7e-m+fp/hard/crt0.o
my_delay                                          build/main.o
raise                                             i:/mcu/gnu_tools_for_arm/11.3_rel1/bin/../lib/gcc/arm-none-eabi/11.3.1/thumb/v7e-m+fp/hard\libc.a(libc_a-signal.o)
                                                  i:/mcu/gnu_tools_for_arm/11.3_rel1/bin/../lib/gcc/arm-none-eabi/11.3.1/thumb/v7e-m+fp/hard\libc.a(libc_a-abort.o)
setlocale                                         i:/mcu/gnu_tools_for_arm/11.3_rel1/bin/../lib/gcc/arm-none-eabi/11.3.1/thumb/v7e-m+fp/hard\libc.a(libc_a-locale.o)
signal                                            i:/mcu/gnu_tools_for_arm/11.3_rel1/bin/../lib/gcc/arm-none-eabi/11.3.1/thumb/v7e-m+fp/hard\libc.a(libc_a-signal.o)
software_init_hook                                i:/mcu/gnu_tools_for_arm/11.3_rel1/bin/../lib/gcc/arm-none-eabi/11.3.1/thumb/v7e-m+fp/hard/crt0.o
sprintf                                           i:/mcu/gnu_tools_for_arm/11.3_rel1/bin/../lib/gcc/arm-none-eabi/11.3.1/thumb/v7e-m+fp/hard\libc.a(libc_a-sprintf.o)
                                                  build/user_uart.o
strcasecmp                                        i:/mcu/gnu_tools_for_arm/11.3_rel1/bin/../lib/gcc/arm-none-eabi/11.3.1/thumb/v7e-m+fp/hard\libc.a(libc_a-strcasecmp.o)
                                                  i:/mcu/gnu_tools_for_arm/11.3_rel1/bin/../lib/gcc/arm-none-eabi/11.3.1/thumb/v7e-m+fp/hard\libc.a(libc_a-locale.o)
strcat                                            i:/mcu/gnu_tools_for_arm/11.3_rel1/bin/../lib/gcc/arm-none-eabi/11.3.1/thumb/v7e-m+fp/hard\libc.a(libc_a-strcat.o)
                                                  i:/mcu/gnu_tools_for_arm/11.3_rel1/bin/../lib/gcc/arm-none-eabi/11.3.1/thumb/v7e-m+fp/hard\libc.a(libc_a-locale.o)
strchr                                            i:/mcu/gnu_tools_for_arm/11.3_rel1/bin/../lib/gcc/arm-none-eabi/11.3.1/thumb/v7e-m+fp/hard\libc.a(libc_a-strchr.o)
                                                  i:/mcu/gnu_tools_for_arm/11.3_rel1/bin/../lib/gcc/arm-none-eabi/11.3.1/thumb/v7e-m+fp/hard\libc.a(libc_a-locale.o)
strcmp                                            i:/mcu/gnu_tools_for_arm/11.3_rel1/bin/../lib/gcc/arm-none-eabi/11.3.1/thumb/v7e-m+fp/hard\libc.a(libc_a-strcmp.o)
                                                  i:/mcu/gnu_tools_for_arm/11.3_rel1/bin/../lib/gcc/arm-none-eabi/11.3.1/thumb/v7e-m+fp/hard\libc.a(libc_a-locale.o)
strcpy                                            i:/mcu/gnu_tools_for_arm/11.3_rel1/bin/../lib/gcc/arm-none-eabi/11.3.1/thumb/v7e-m+fp/hard\libc.a(libc_a-strcpy.o)
                                                  i:/mcu/gnu_tools_for_arm/11.3_rel1/bin/../lib/gcc/arm-none-eabi/11.3.1/thumb/v7e-m+fp/hard\libc.a(libc_a-strcat.o)
                                                  i:/mcu/gnu_tools_for_arm/11.3_rel1/bin/../lib/gcc/arm-none-eabi/11.3.1/thumb/v7e-m+fp/hard\libc.a(libc_a-locale.o)
strlcpy                                           i:/mcu/gnu_tools_for_arm/11.3_rel1/bin/../lib/gcc/arm-none-eabi/11.3.1/thumb/v7e-m+fp/hard\libc.a(libc_a-strlcpy.o)
                                                  i:/mcu/gnu_tools_for_arm/11.3_rel1/bin/../lib/gcc/arm-none-eabi/11.3.1/thumb/v7e-m+fp/hard\libc.a(libc_a-locale.o)
strlen                                            i:/mcu/gnu_tools_for_arm/11.3_rel1/bin/../lib/gcc/arm-none-eabi/11.3.1/thumb/v7e-m+fp/hard\libc.a(libc_a-strlen.o)
                                                  i:/mcu/gnu_tools_for_arm/11.3_rel1/bin/../lib/gcc/arm-none-eabi/11.3.1/thumb/v7e-m+fp/hard\libc.a(libc_a-vfiprintf.o)
                                                  i:/mcu/gnu_tools_for_arm/11.3_rel1/bin/../lib/gcc/arm-none-eabi/11.3.1/thumb/v7e-m+fp/hard\libc.a(libc_a-svfiprintf.o)
                                                  i:/mcu/gnu_tools_for_arm/11.3_rel1/bin/../lib/gcc/arm-none-eabi/11.3.1/thumb/v7e-m+fp/hard\libc.a(libc_a-locale.o)
                                                  i:/mcu/gnu_tools_for_arm/11.3_rel1/bin/../lib/gcc/arm-none-eabi/11.3.1/thumb/v7e-m+fp/hard\libc.a(libc_a-svfprintf.o)
strncasecmp                                       i:/mcu/gnu_tools_for_arm/11.3_rel1/bin/../lib/gcc/arm-none-eabi/11.3.1/thumb/v7e-m+fp/hard\libc.a(libc_a-strncasecmp.o)
                                                  i:/mcu/gnu_tools_for_arm/11.3_rel1/bin/../lib/gcc/arm-none-eabi/11.3.1/thumb/v7e-m+fp/hard\libc.a(libc_a-locale.o)
strncmp                                           i:/mcu/gnu_tools_for_arm/11.3_rel1/bin/../lib/gcc/arm-none-eabi/11.3.1/thumb/v7e-m+fp/hard\libc.a(libc_a-strncmp.o)
                                                  i:/mcu/gnu_tools_for_arm/11.3_rel1/bin/../lib/gcc/arm-none-eabi/11.3.1/thumb/v7e-m+fp/hard\libc.a(libc_a-getenv_r.o)
strncpy                                           i:/mcu/gnu_tools_for_arm/11.3_rel1/bin/../lib/gcc/arm-none-eabi/11.3.1/thumb/v7e-m+fp/hard\libc.a(libc_a-strncpy.o)
                                                  i:/mcu/gnu_tools_for_arm/11.3_rel1/bin/../lib/gcc/arm-none-eabi/11.3.1/thumb/v7e-m+fp/hard\libc.a(libc_a-vfiprintf.o)
                                                  i:/mcu/gnu_tools_for_arm/11.3_rel1/bin/../lib/gcc/arm-none-eabi/11.3.1/thumb/v7e-m+fp/hard\libc.a(libc_a-svfiprintf.o)
                                                  i:/mcu/gnu_tools_for_arm/11.3_rel1/bin/../lib/gcc/arm-none-eabi/11.3.1/thumb/v7e-m+fp/hard\libc.a(libc_a-locale.o)
                                                  i:/mcu/gnu_tools_for_arm/11.3_rel1/bin/../lib/gcc/arm-none-eabi/11.3.1/thumb/v7e-m+fp/hard\libc.a(libc_a-svfprintf.o)
strtol                                            i:/mcu/gnu_tools_for_arm/11.3_rel1/bin/../lib/gcc/arm-none-eabi/11.3.1/thumb/v7e-m+fp/hard\libc.a(libc_a-strtol.o)
                                                  i:/mcu/gnu_tools_for_arm/11.3_rel1/bin/../lib/gcc/arm-none-eabi/11.3.1/thumb/v7e-m+fp/hard\libc.a(libc_a-locale.o)
strtol_l                                          i:/mcu/gnu_tools_for_arm/11.3_rel1/bin/../lib/gcc/arm-none-eabi/11.3.1/thumb/v7e-m+fp/hard\libc.a(libc_a-strtol.o)
user_iic                                          build/iic_bus.o
vfiprintf                                         i:/mcu/gnu_tools_for_arm/11.3_rel1/bin/../lib/gcc/arm-none-eabi/11.3.1/thumb/v7e-m+fp/hard\libc.a(libc_a-vfiprintf.o)
wcrtomb                                           i:/mcu/gnu_tools_for_arm/11.3_rel1/bin/../lib/gcc/arm-none-eabi/11.3.1/thumb/v7e-m+fp/hard\libc.a(libc_a-wcrtomb.o)
wcsnrtombs                                        i:/mcu/gnu_tools_for_arm/11.3_rel1/bin/../lib/gcc/arm-none-eabi/11.3.1/thumb/v7e-m+fp/hard\libc.a(libc_a-wcsnrtombs.o)
wcsrtombs                                         i:/mcu/gnu_tools_for_arm/11.3_rel1/bin/../lib/gcc/arm-none-eabi/11.3.1/thumb/v7e-m+fp/hard\libc.a(libc_a-wcsrtombs.o)
